SF:C:\Users\s2010\Me\Codes\Rust\wgpu-3dgs-viewer\src\buffer\camera.rs
FN:26,_RINvMNtNtCsjAfDNjLymyL_16wgpu_3dgs_viewer6buffer6cameraNtB3_12CameraBuffer6updateNtNtB7_6camera6CameraECskHWTcKnagmk_3mod
FN:72,_RINvMs3_NtNtCsjAfDNjLymyL_16wgpu_3dgs_viewer6buffer6cameraNtB6_9CameraPod3newNtNtBa_6camera6CameraECskHWTcKnagmk_3mod
FN:31,_RNvMNtNtCsjAfDNjLymyL_16wgpu_3dgs_viewer6buffer6cameraNtB2_12CameraBuffer15update_with_pod
FN:14,_RNvMNtNtCsjAfDNjLymyL_16wgpu_3dgs_viewer6buffer6cameraNtB2_12CameraBuffer3new
FN:51,_RNvXs1_NtNtCsjAfDNjLymyL_16wgpu_3dgs_viewer6buffer6cameraNtB5_12CameraBufferINtNtCsmHtFwzCQ9E_4core7convert7TryFromNtNtNtCs4aW9DWY8b5u_4wgpu3api6buffer6BufferE8try_from
FN:37,_RNvXs_NtNtCsjAfDNjLymyL_16wgpu_3dgs_viewer6buffer6cameraNtB4_12CameraBufferNtNtCs7uIZbJPR652_14wgpu_3dgs_core6buffer13BufferWrapper6buffer
FN:43,_RNvXs0_NtNtCsjAfDNjLymyL_16wgpu_3dgs_viewer6buffer6cameraNtNtNtCs4aW9DWY8b5u_4wgpu3api6buffer6BufferINtNtCsmHtFwzCQ9E_4core7convert4FromNtB5_12CameraBufferE4from
FN:52,_RNCNvXs1_NtNtCsjAfDNjLymyL_16wgpu_3dgs_viewer6buffer6cameraNtB7_12CameraBufferINtNtCsmHtFwzCQ9E_4core7convert7TryFromNtNtNtCs4aW9DWY8b5u_4wgpu3api6buffer6BufferE8try_from0Bb_
FN:26,_RINvMNtNtCsjMvbNGsYfvH_16wgpu_3dgs_viewer6buffer6cameraNtB3_12CameraBuffer6updatepEB7_
FN:72,_RINvMs3_NtNtCsjMvbNGsYfvH_16wgpu_3dgs_viewer6buffer6cameraNtB6_9CameraPod3newpEBa_
FN:52,_RNCNvXs1_NtNtCsjMvbNGsYfvH_16wgpu_3dgs_viewer6buffer6cameraNtB7_12CameraBufferINtNtCsmHtFwzCQ9E_4core7convert7TryFromNtNtNtCs4aW9DWY8b5u_4wgpu3api6buffer6BufferE8try_from0Bb_
FN:31,_RNvMNtNtCsjMvbNGsYfvH_16wgpu_3dgs_viewer6buffer6cameraNtB2_12CameraBuffer15update_with_pod
FN:14,_RNvMNtNtCsjMvbNGsYfvH_16wgpu_3dgs_viewer6buffer6cameraNtB2_12CameraBuffer3new
FN:43,_RNvXs0_NtNtCsjMvbNGsYfvH_16wgpu_3dgs_viewer6buffer6cameraNtNtNtCs4aW9DWY8b5u_4wgpu3api6buffer6BufferINtNtCsmHtFwzCQ9E_4core7convert4FromNtB5_12CameraBufferE4from
FN:51,_RNvXs1_NtNtCsjMvbNGsYfvH_16wgpu_3dgs_viewer6buffer6cameraNtB5_12CameraBufferINtNtCsmHtFwzCQ9E_4core7convert7TryFromNtNtNtCs4aW9DWY8b5u_4wgpu3api6buffer6BufferE8try_from
FN:37,_RNvXs_NtNtCsjMvbNGsYfvH_16wgpu_3dgs_viewer6buffer6cameraNtB4_12CameraBufferNtNtCs7uIZbJPR652_14wgpu_3dgs_core6buffer13BufferWrapper6buffer
FN:26,_RINvMNtNtCsjAfDNjLymyL_16wgpu_3dgs_viewer6buffer6cameraNtB3_12CameraBuffer6updateNtNtB7_6camera6CameraECsgCUhY3MwoBc_11multi_model
FN:72,_RINvMs3_NtNtCsjAfDNjLymyL_16wgpu_3dgs_viewer6buffer6cameraNtB6_9CameraPod3newNtNtBa_6camera6CameraECsgCUhY3MwoBc_11multi_model
FN:26,_RINvMNtNtCsjAfDNjLymyL_16wgpu_3dgs_viewer6buffer6cameraNtB3_12CameraBuffer6updateNtNtB7_6camera6CameraECsaEBMRA9cDqq_9selection
FN:72,_RINvMs3_NtNtCsjAfDNjLymyL_16wgpu_3dgs_viewer6buffer6cameraNtB6_9CameraPod3newNtNtBa_6camera6CameraECsaEBMRA9cDqq_9selection
FN:26,_RINvMNtNtCsjAfDNjLymyL_16wgpu_3dgs_viewer6buffer6cameraNtB3_12CameraBuffer6updateNtNtB7_6camera6CameraECsiA5QZE4OIiA_6simple
FN:72,_RINvMs3_NtNtCsjAfDNjLymyL_16wgpu_3dgs_viewer6buffer6cameraNtB6_9CameraPod3newNtNtBa_6camera6CameraECsiA5QZE4OIiA_6simple
FNDA:1,_RINvMNtNtCsjAfDNjLymyL_16wgpu_3dgs_viewer6buffer6cameraNtB3_12CameraBuffer6updateNtNtB7_6camera6CameraECskHWTcKnagmk_3mod
FNDA:16,_RINvMs3_NtNtCsjAfDNjLymyL_16wgpu_3dgs_viewer6buffer6cameraNtB6_9CameraPod3newNtNtBa_6camera6CameraECskHWTcKnagmk_3mod
FNDA:157,_RNvMNtNtCsjAfDNjLymyL_16wgpu_3dgs_viewer6buffer6cameraNtB2_12CameraBuffer15update_with_pod
FNDA:12,_RNvMNtNtCsjAfDNjLymyL_16wgpu_3dgs_viewer6buffer6cameraNtB2_12CameraBuffer3new
FNDA:3,_RNvXs1_NtNtCsjAfDNjLymyL_16wgpu_3dgs_viewer6buffer6cameraNtB5_12CameraBufferINtNtCsmHtFwzCQ9E_4core7convert7TryFromNtNtNtCs4aW9DWY8b5u_4wgpu3api6buffer6BufferE8try_from
FNDA:56,_RNvXs_NtNtCsjAfDNjLymyL_16wgpu_3dgs_viewer6buffer6cameraNtB4_12CameraBufferNtNtCs7uIZbJPR652_14wgpu_3dgs_core6buffer13BufferWrapper6buffer
FNDA:1,_RNvXs0_NtNtCsjAfDNjLymyL_16wgpu_3dgs_viewer6buffer6cameraNtNtNtCs4aW9DWY8b5u_4wgpu3api6buffer6BufferINtNtCsmHtFwzCQ9E_4core7convert4FromNtB5_12CameraBufferE4from
FNDA:3,_RNCNvXs1_NtNtCsjAfDNjLymyL_16wgpu_3dgs_viewer6buffer6cameraNtB7_12CameraBufferINtNtCsmHtFwzCQ9E_4core7convert7TryFromNtNtNtCs4aW9DWY8b5u_4wgpu3api6buffer6BufferE8try_from0Bb_
FNDA:0,_RINvMNtNtCsjMvbNGsYfvH_16wgpu_3dgs_viewer6buffer6cameraNtB3_12CameraBuffer6updatepEB7_
FNDA:0,_RINvMs3_NtNtCsjMvbNGsYfvH_16wgpu_3dgs_viewer6buffer6cameraNtB6_9CameraPod3newpEBa_
FNDA:0,_RNCNvXs1_NtNtCsjMvbNGsYfvH_16wgpu_3dgs_viewer6buffer6cameraNtB7_12CameraBufferINtNtCsmHtFwzCQ9E_4core7convert7TryFromNtNtNtCs4aW9DWY8b5u_4wgpu3api6buffer6BufferE8try_from0Bb_
FNDA:0,_RNvMNtNtCsjMvbNGsYfvH_16wgpu_3dgs_viewer6buffer6cameraNtB2_12CameraBuffer15update_with_pod
FNDA:0,_RNvMNtNtCsjMvbNGsYfvH_16wgpu_3dgs_viewer6buffer6cameraNtB2_12CameraBuffer3new
FNDA:0,_RNvXs0_NtNtCsjMvbNGsYfvH_16wgpu_3dgs_viewer6buffer6cameraNtNtNtCs4aW9DWY8b5u_4wgpu3api6buffer6BufferINtNtCsmHtFwzCQ9E_4core7convert4FromNtB5_12CameraBufferE4from
FNDA:0,_RNvXs1_NtNtCsjMvbNGsYfvH_16wgpu_3dgs_viewer6buffer6cameraNtB5_12CameraBufferINtNtCsmHtFwzCQ9E_4core7convert7TryFromNtNtNtCs4aW9DWY8b5u_4wgpu3api6buffer6BufferE8try_from
FNDA:0,_RNvXs_NtNtCsjMvbNGsYfvH_16wgpu_3dgs_viewer6buffer6cameraNtB4_12CameraBufferNtNtCs7uIZbJPR652_14wgpu_3dgs_core6buffer13BufferWrapper6buffer
FNDA:0,_RINvMNtNtCsjAfDNjLymyL_16wgpu_3dgs_viewer6buffer6cameraNtB3_12CameraBuffer6updateNtNtB7_6camera6CameraECsgCUhY3MwoBc_11multi_model
FNDA:0,_RINvMs3_NtNtCsjAfDNjLymyL_16wgpu_3dgs_viewer6buffer6cameraNtB6_9CameraPod3newNtNtBa_6camera6CameraECsgCUhY3MwoBc_11multi_model
FNDA:145,_RINvMNtNtCsjAfDNjLymyL_16wgpu_3dgs_viewer6buffer6cameraNtB3_12CameraBuffer6updateNtNtB7_6camera6CameraECsaEBMRA9cDqq_9selection
FNDA:145,_RINvMs3_NtNtCsjAfDNjLymyL_16wgpu_3dgs_viewer6buffer6cameraNtB6_9CameraPod3newNtNtBa_6camera6CameraECsaEBMRA9cDqq_9selection
FNDA:0,_RINvMNtNtCsjAfDNjLymyL_16wgpu_3dgs_viewer6buffer6cameraNtB3_12CameraBuffer6updateNtNtB7_6camera6CameraECsiA5QZE4OIiA_6simple
FNDA:0,_RINvMs3_NtNtCsjAfDNjLymyL_16wgpu_3dgs_viewer6buffer6cameraNtB6_9CameraPod3newNtNtBa_6camera6CameraECsiA5QZE4OIiA_6simple
FNF:8
FNH:8
DA:14,12
DA:15,12
DA:16,12
DA:17,12
DA:18,12
DA:19,12
DA:20,12
DA:22,12
DA:23,12
DA:26,146
DA:27,146
DA:28,146
DA:31,157
DA:32,157
DA:33,157
DA:37,56
DA:38,56
DA:39,56
DA:43,1
DA:44,1
DA:45,1
DA:51,3
DA:52,3
DA:53,3
DA:72,161
DA:73,161
DA:74,161
DA:75,161
DA:76,161
DA:77,161
DA:78,161
DA:79,161
BRF:0
BRH:0
LF:33
LH:33
end_of_record
SF:C:\Users\s2010\Me\Codes\Rust\wgpu-3dgs-viewer\src\buffer\depth.rs
FN:9,_RNvMNtNtCsjAfDNjLymyL_16wgpu_3dgs_viewer6buffer5depthNtB2_20GaussiansDepthBuffer3new
FN:27,_RNvXs_NtNtCsjAfDNjLymyL_16wgpu_3dgs_viewer6buffer5depthNtB4_20GaussiansDepthBufferNtNtCs7uIZbJPR652_14wgpu_3dgs_core6buffer13BufferWrapper6buffer
FN:33,_RNvXs0_NtNtCsjAfDNjLymyL_16wgpu_3dgs_viewer6buffer5depthNtNtNtCs4aW9DWY8b5u_4wgpu3api6buffer6BufferINtNtCsmHtFwzCQ9E_4core7convert4FromNtB5_20GaussiansDepthBufferE4from
FN:9,_RNvMNtNtCsjMvbNGsYfvH_16wgpu_3dgs_viewer6buffer5depthNtB2_20GaussiansDepthBuffer3new
FN:33,_RNvXs0_NtNtCsjMvbNGsYfvH_16wgpu_3dgs_viewer6buffer5depthNtNtNtCs4aW9DWY8b5u_4wgpu3api6buffer6BufferINtNtCsmHtFwzCQ9E_4core7convert4FromNtB5_20GaussiansDepthBufferE4from
FN:27,_RNvXs_NtNtCsjMvbNGsYfvH_16wgpu_3dgs_viewer6buffer5depthNtB4_20GaussiansDepthBufferNtNtCs7uIZbJPR652_14wgpu_3dgs_core6buffer13BufferWrapper6buffer
FNDA:11,_RNvMNtNtCsjAfDNjLymyL_16wgpu_3dgs_viewer6buffer5depthNtB2_20GaussiansDepthBuffer3new
FNDA:22,_RNvXs_NtNtCsjAfDNjLymyL_16wgpu_3dgs_viewer6buffer5depthNtB4_20GaussiansDepthBufferNtNtCs7uIZbJPR652_14wgpu_3dgs_core6buffer13BufferWrapper6buffer
FNDA:0,_RNvXs0_NtNtCsjAfDNjLymyL_16wgpu_3dgs_viewer6buffer5depthNtNtNtCs4aW9DWY8b5u_4wgpu3api6buffer6BufferINtNtCsmHtFwzCQ9E_4core7convert4FromNtB5_20GaussiansDepthBufferE4from
FNDA:0,_RNvMNtNtCsjMvbNGsYfvH_16wgpu_3dgs_viewer6buffer5depthNtB2_20GaussiansDepthBuffer3new
FNDA:0,_RNvXs0_NtNtCsjMvbNGsYfvH_16wgpu_3dgs_viewer6buffer5depthNtNtNtCs4aW9DWY8b5u_4wgpu3api6buffer6BufferINtNtCsmHtFwzCQ9E_4core7convert4FromNtB5_20GaussiansDepthBufferE4from
FNDA:0,_RNvXs_NtNtCsjMvbNGsYfvH_16wgpu_3dgs_viewer6buffer5depthNtB4_20GaussiansDepthBufferNtNtCs7uIZbJPR652_14wgpu_3dgs_core6buffer13BufferWrapper6buffer
FNF:3
FNH:2
DA:9,11
DA:11,11
DA:13,11
DA:14,11
DA:15,11
DA:16,11
DA:17,11
DA:18,11
DA:20,11
DA:21,11
DA:27,22
DA:28,22
DA:29,22
DA:33,0
DA:34,0
DA:35,0
BRF:0
BRH:0
LF:16
LH:13
end_of_record
SF:C:\Users\s2010\Me\Codes\Rust\wgpu-3dgs-viewer\src\buffer\indirect_args.rs
FN:12,_RNvMNtNtCsjAfDNjLymyL_16wgpu_3dgs_viewer6buffer13indirect_argsNtB2_18IndirectArgsBuffer3new
FN:63,_RNvMs3_NtNtCsjAfDNjLymyL_16wgpu_3dgs_viewer6buffer13indirect_argsNtB5_27RadixSortIndirectArgsBuffer3new
FN:108,_RNvMs8_NtNtCsjAfDNjLymyL_16wgpu_3dgs_viewer6buffer13indirect_argsNtB5_21IndirectIndicesBuffer3new
FN:48,_RNvXs1_NtNtCsjAfDNjLymyL_16wgpu_3dgs_viewer6buffer13indirect_argsNtB5_18IndirectArgsBufferINtNtCsmHtFwzCQ9E_4core7convert7TryFromNtNtNtCs4aW9DWY8b5u_4wgpu3api6buffer6BufferE8try_from
FN:79,_RNvXs4_NtNtCsjAfDNjLymyL_16wgpu_3dgs_viewer6buffer13indirect_argsNtB5_27RadixSortIndirectArgsBufferNtNtCs7uIZbJPR652_14wgpu_3dgs_core6buffer13BufferWrapper6buffer
FN:93,_RNvXs6_NtNtCsjAfDNjLymyL_16wgpu_3dgs_viewer6buffer13indirect_argsNtB5_27RadixSortIndirectArgsBufferINtNtCsmHtFwzCQ9E_4core7convert7TryFromNtNtNtCs4aW9DWY8b5u_4wgpu3api6buffer6BufferE8try_from
FN:123,_RNvXs9_NtNtCsjAfDNjLymyL_16wgpu_3dgs_viewer6buffer13indirect_argsNtB5_21IndirectIndicesBufferNtNtCs7uIZbJPR652_14wgpu_3dgs_core6buffer13BufferWrapper6buffer
FN:34,_RNvXs_NtNtCsjAfDNjLymyL_16wgpu_3dgs_viewer6buffer13indirect_argsNtB4_18IndirectArgsBufferNtNtCs7uIZbJPR652_14wgpu_3dgs_core6buffer13BufferWrapper6buffer
FN:135,_RNvXsb_NtNtCsjAfDNjLymyL_16wgpu_3dgs_viewer6buffer13indirect_argsNtB5_21IndirectIndicesBufferINtNtCsmHtFwzCQ9E_4core7convert4FromNtNtNtCs4aW9DWY8b5u_4wgpu3api6buffer6BufferE4from
FN:40,_RNvXs0_NtNtCsjAfDNjLymyL_16wgpu_3dgs_viewer6buffer13indirect_argsNtNtNtCs4aW9DWY8b5u_4wgpu3api6buffer6BufferINtNtCsmHtFwzCQ9E_4core7convert4FromNtB5_18IndirectArgsBufferE4from
FN:85,_RNvXs5_NtNtCsjAfDNjLymyL_16wgpu_3dgs_viewer6buffer13indirect_argsNtNtNtCs4aW9DWY8b5u_4wgpu3api6buffer6BufferINtNtCsmHtFwzCQ9E_4core7convert4FromNtB5_27RadixSortIndirectArgsBufferE4from
FN:129,_RNvXsa_NtNtCsjAfDNjLymyL_16wgpu_3dgs_viewer6buffer13indirect_argsNtNtNtCs4aW9DWY8b5u_4wgpu3api6buffer6BufferINtNtCsmHtFwzCQ9E_4core7convert4FromNtB5_21IndirectIndicesBufferE4from
FN:49,_RNCNvXs1_NtNtCsjAfDNjLymyL_16wgpu_3dgs_viewer6buffer13indirect_argsNtB7_18IndirectArgsBufferINtNtCsmHtFwzCQ9E_4core7convert7TryFromNtNtNtCs4aW9DWY8b5u_4wgpu3api6buffer6BufferE8try_from0Bb_
FN:94,_RNCNvXs6_NtNtCsjAfDNjLymyL_16wgpu_3dgs_viewer6buffer13indirect_argsNtB7_27RadixSortIndirectArgsBufferINtNtCsmHtFwzCQ9E_4core7convert7TryFromNtNtNtCs4aW9DWY8b5u_4wgpu3api6buffer6BufferE8try_from0Bb_
FN:49,_RNCNvXs1_NtNtCsjMvbNGsYfvH_16wgpu_3dgs_viewer6buffer13indirect_argsNtB7_18IndirectArgsBufferINtNtCsmHtFwzCQ9E_4core7convert7TryFromNtNtNtCs4aW9DWY8b5u_4wgpu3api6buffer6BufferE8try_from0Bb_
FN:94,_RNCNvXs6_NtNtCsjMvbNGsYfvH_16wgpu_3dgs_viewer6buffer13indirect_argsNtB7_27RadixSortIndirectArgsBufferINtNtCsmHtFwzCQ9E_4core7convert7TryFromNtNtNtCs4aW9DWY8b5u_4wgpu3api6buffer6BufferE8try_from0Bb_
FN:12,_RNvMNtNtCsjMvbNGsYfvH_16wgpu_3dgs_viewer6buffer13indirect_argsNtB2_18IndirectArgsBuffer3new
FN:63,_RNvMs3_NtNtCsjMvbNGsYfvH_16wgpu_3dgs_viewer6buffer13indirect_argsNtB5_27RadixSortIndirectArgsBuffer3new
FN:108,_RNvMs8_NtNtCsjMvbNGsYfvH_16wgpu_3dgs_viewer6buffer13indirect_argsNtB5_21IndirectIndicesBuffer3new
FN:40,_RNvXs0_NtNtCsjMvbNGsYfvH_16wgpu_3dgs_viewer6buffer13indirect_argsNtNtNtCs4aW9DWY8b5u_4wgpu3api6buffer6BufferINtNtCsmHtFwzCQ9E_4core7convert4FromNtB5_18IndirectArgsBufferE4from
FN:48,_RNvXs1_NtNtCsjMvbNGsYfvH_16wgpu_3dgs_viewer6buffer13indirect_argsNtB5_18IndirectArgsBufferINtNtCsmHtFwzCQ9E_4core7convert7TryFromNtNtNtCs4aW9DWY8b5u_4wgpu3api6buffer6BufferE8try_from
FN:79,_RNvXs4_NtNtCsjMvbNGsYfvH_16wgpu_3dgs_viewer6buffer13indirect_argsNtB5_27RadixSortIndirectArgsBufferNtNtCs7uIZbJPR652_14wgpu_3dgs_core6buffer13BufferWrapper6buffer
FN:85,_RNvXs5_NtNtCsjMvbNGsYfvH_16wgpu_3dgs_viewer6buffer13indirect_argsNtNtNtCs4aW9DWY8b5u_4wgpu3api6buffer6BufferINtNtCsmHtFwzCQ9E_4core7convert4FromNtB5_27RadixSortIndirectArgsBufferE4from
FN:93,_RNvXs6_NtNtCsjMvbNGsYfvH_16wgpu_3dgs_viewer6buffer13indirect_argsNtB5_27RadixSortIndirectArgsBufferINtNtCsmHtFwzCQ9E_4core7convert7TryFromNtNtNtCs4aW9DWY8b5u_4wgpu3api6buffer6BufferE8try_from
FN:123,_RNvXs9_NtNtCsjMvbNGsYfvH_16wgpu_3dgs_viewer6buffer13indirect_argsNtB5_21IndirectIndicesBufferNtNtCs7uIZbJPR652_14wgpu_3dgs_core6buffer13BufferWrapper6buffer
FN:34,_RNvXs_NtNtCsjMvbNGsYfvH_16wgpu_3dgs_viewer6buffer13indirect_argsNtB4_18IndirectArgsBufferNtNtCs7uIZbJPR652_14wgpu_3dgs_core6buffer13BufferWrapper6buffer
FN:129,_RNvXsa_NtNtCsjMvbNGsYfvH_16wgpu_3dgs_viewer6buffer13indirect_argsNtNtNtCs4aW9DWY8b5u_4wgpu3api6buffer6BufferINtNtCsmHtFwzCQ9E_4core7convert4FromNtB5_21IndirectIndicesBufferE4from
FN:135,_RNvXsb_NtNtCsjMvbNGsYfvH_16wgpu_3dgs_viewer6buffer13indirect_argsNtB5_21IndirectIndicesBufferINtNtCsmHtFwzCQ9E_4core7convert4FromNtNtNtCs4aW9DWY8b5u_4wgpu3api6buffer6BufferE4from
FNDA:12,_RNvMNtNtCsjAfDNjLymyL_16wgpu_3dgs_viewer6buffer13indirect_argsNtB2_18IndirectArgsBuffer3new
FNDA:12,_RNvMs3_NtNtCsjAfDNjLymyL_16wgpu_3dgs_viewer6buffer13indirect_argsNtB5_27RadixSortIndirectArgsBuffer3new
FNDA:17,_RNvMs8_NtNtCsjAfDNjLymyL_16wgpu_3dgs_viewer6buffer13indirect_argsNtB5_21IndirectIndicesBuffer3new
FNDA:1,_RNvXs1_NtNtCsjAfDNjLymyL_16wgpu_3dgs_viewer6buffer13indirect_argsNtB5_18IndirectArgsBufferINtNtCsmHtFwzCQ9E_4core7convert7TryFromNtNtNtCs4aW9DWY8b5u_4wgpu3api6buffer6BufferE8try_from
FNDA:169,_RNvXs4_NtNtCsjAfDNjLymyL_16wgpu_3dgs_viewer6buffer13indirect_argsNtB5_27RadixSortIndirectArgsBufferNtNtCs7uIZbJPR652_14wgpu_3dgs_core6buffer13BufferWrapper6buffer
FNDA:1,_RNvXs6_NtNtCsjAfDNjLymyL_16wgpu_3dgs_viewer6buffer13indirect_argsNtB5_27RadixSortIndirectArgsBufferINtNtCsmHtFwzCQ9E_4core7convert7TryFromNtNtNtCs4aW9DWY8b5u_4wgpu3api6buffer6BufferE8try_from
FNDA:41,_RNvXs9_NtNtCsjAfDNjLymyL_16wgpu_3dgs_viewer6buffer13indirect_argsNtB5_21IndirectIndicesBufferNtNtCs7uIZbJPR652_14wgpu_3dgs_core6buffer13BufferWrapper6buffer
FNDA:169,_RNvXs_NtNtCsjAfDNjLymyL_16wgpu_3dgs_viewer6buffer13indirect_argsNtB4_18IndirectArgsBufferNtNtCs7uIZbJPR652_14wgpu_3dgs_core6buffer13BufferWrapper6buffer
FNDA:1,_RNvXsb_NtNtCsjAfDNjLymyL_16wgpu_3dgs_viewer6buffer13indirect_argsNtB5_21IndirectIndicesBufferINtNtCsmHtFwzCQ9E_4core7convert4FromNtNtNtCs4aW9DWY8b5u_4wgpu3api6buffer6BufferE4from
FNDA:1,_RNvXs0_NtNtCsjAfDNjLymyL_16wgpu_3dgs_viewer6buffer13indirect_argsNtNtNtCs4aW9DWY8b5u_4wgpu3api6buffer6BufferINtNtCsmHtFwzCQ9E_4core7convert4FromNtB5_18IndirectArgsBufferE4from
FNDA:1,_RNvXs5_NtNtCsjAfDNjLymyL_16wgpu_3dgs_viewer6buffer13indirect_argsNtNtNtCs4aW9DWY8b5u_4wgpu3api6buffer6BufferINtNtCsmHtFwzCQ9E_4core7convert4FromNtB5_27RadixSortIndirectArgsBufferE4from
FNDA:1,_RNvXsa_NtNtCsjAfDNjLymyL_16wgpu_3dgs_viewer6buffer13indirect_argsNtNtNtCs4aW9DWY8b5u_4wgpu3api6buffer6BufferINtNtCsmHtFwzCQ9E_4core7convert4FromNtB5_21IndirectIndicesBufferE4from
FNDA:1,_RNCNvXs1_NtNtCsjAfDNjLymyL_16wgpu_3dgs_viewer6buffer13indirect_argsNtB7_18IndirectArgsBufferINtNtCsmHtFwzCQ9E_4core7convert7TryFromNtNtNtCs4aW9DWY8b5u_4wgpu3api6buffer6BufferE8try_from0Bb_
FNDA:1,_RNCNvXs6_NtNtCsjAfDNjLymyL_16wgpu_3dgs_viewer6buffer13indirect_argsNtB7_27RadixSortIndirectArgsBufferINtNtCsmHtFwzCQ9E_4core7convert7TryFromNtNtNtCs4aW9DWY8b5u_4wgpu3api6buffer6BufferE8try_from0Bb_
FNDA:0,_RNCNvXs1_NtNtCsjMvbNGsYfvH_16wgpu_3dgs_viewer6buffer13indirect_argsNtB7_18IndirectArgsBufferINtNtCsmHtFwzCQ9E_4core7convert7TryFromNtNtNtCs4aW9DWY8b5u_4wgpu3api6buffer6BufferE8try_from0Bb_
FNDA:0,_RNCNvXs6_NtNtCsjMvbNGsYfvH_16wgpu_3dgs_viewer6buffer13indirect_argsNtB7_27RadixSortIndirectArgsBufferINtNtCsmHtFwzCQ9E_4core7convert7TryFromNtNtNtCs4aW9DWY8b5u_4wgpu3api6buffer6BufferE8try_from0Bb_
FNDA:0,_RNvMNtNtCsjMvbNGsYfvH_16wgpu_3dgs_viewer6buffer13indirect_argsNtB2_18IndirectArgsBuffer3new
FNDA:0,_RNvMs3_NtNtCsjMvbNGsYfvH_16wgpu_3dgs_viewer6buffer13indirect_argsNtB5_27RadixSortIndirectArgsBuffer3new
FNDA:0,_RNvMs8_NtNtCsjMvbNGsYfvH_16wgpu_3dgs_viewer6buffer13indirect_argsNtB5_21IndirectIndicesBuffer3new
FNDA:0,_RNvXs0_NtNtCsjMvbNGsYfvH_16wgpu_3dgs_viewer6buffer13indirect_argsNtNtNtCs4aW9DWY8b5u_4wgpu3api6buffer6BufferINtNtCsmHtFwzCQ9E_4core7convert4FromNtB5_18IndirectArgsBufferE4from
FNDA:0,_RNvXs1_NtNtCsjMvbNGsYfvH_16wgpu_3dgs_viewer6buffer13indirect_argsNtB5_18IndirectArgsBufferINtNtCsmHtFwzCQ9E_4core7convert7TryFromNtNtNtCs4aW9DWY8b5u_4wgpu3api6buffer6BufferE8try_from
FNDA:0,_RNvXs4_NtNtCsjMvbNGsYfvH_16wgpu_3dgs_viewer6buffer13indirect_argsNtB5_27RadixSortIndirectArgsBufferNtNtCs7uIZbJPR652_14wgpu_3dgs_core6buffer13BufferWrapper6buffer
FNDA:0,_RNvXs5_NtNtCsjMvbNGsYfvH_16wgpu_3dgs_viewer6buffer13indirect_argsNtNtNtCs4aW9DWY8b5u_4wgpu3api6buffer6BufferINtNtCsmHtFwzCQ9E_4core7convert4FromNtB5_27RadixSortIndirectArgsBufferE4from
FNDA:0,_RNvXs6_NtNtCsjMvbNGsYfvH_16wgpu_3dgs_viewer6buffer13indirect_argsNtB5_27RadixSortIndirectArgsBufferINtNtCsmHtFwzCQ9E_4core7convert7TryFromNtNtNtCs4aW9DWY8b5u_4wgpu3api6buffer6BufferE8try_from
FNDA:0,_RNvXs9_NtNtCsjMvbNGsYfvH_16wgpu_3dgs_viewer6buffer13indirect_argsNtB5_21IndirectIndicesBufferNtNtCs7uIZbJPR652_14wgpu_3dgs_core6buffer13BufferWrapper6buffer
FNDA:0,_RNvXs_NtNtCsjMvbNGsYfvH_16wgpu_3dgs_viewer6buffer13indirect_argsNtB4_18IndirectArgsBufferNtNtCs7uIZbJPR652_14wgpu_3dgs_core6buffer13BufferWrapper6buffer
FNDA:0,_RNvXsa_NtNtCsjMvbNGsYfvH_16wgpu_3dgs_viewer6buffer13indirect_argsNtNtNtCs4aW9DWY8b5u_4wgpu3api6buffer6BufferINtNtCsmHtFwzCQ9E_4core7convert4FromNtB5_21IndirectIndicesBufferE4from
FNDA:0,_RNvXsb_NtNtCsjMvbNGsYfvH_16wgpu_3dgs_viewer6buffer13indirect_argsNtB5_21IndirectIndicesBufferINtNtCsmHtFwzCQ9E_4core7convert4FromNtNtNtCs4aW9DWY8b5u_4wgpu3api6buffer6BufferE4from
FNF:14
FNH:14
DA:12,12
DA:13,12
DA:14,12
DA:15,12
DA:16,12
DA:17,12
DA:18,12
DA:19,12
DA:20,12
DA:21,12
DA:22,12
DA:23,12
DA:25,12
DA:26,12
DA:34,169
DA:35,169
DA:36,169
DA:40,1
DA:41,1
DA:42,1
DA:48,1
DA:49,1
DA:50,1
DA:63,12
DA:64,12
DA:65,12
DA:66,12
DA:67,12
DA:68,12
DA:70,12
DA:71,12
DA:79,169
DA:80,169
DA:81,169
DA:85,1
DA:86,1
DA:87,1
DA:93,1
DA:94,1
DA:95,1
DA:108,17
DA:109,17
DA:110,17
DA:111,17
DA:112,17
DA:113,17
DA:114,17
DA:116,17
DA:117,17
DA:123,41
DA:124,41
DA:125,41
DA:129,1
DA:130,1
DA:131,1
DA:135,1
DA:136,1
DA:137,1
BRF:0
BRH:0
LF:60
LH:60
end_of_record
SF:C:\Users\s2010\Me\Codes\Rust\wgpu-3dgs-viewer\src\camera.rs
FN:71,_RNvMNtCsjAfDNjLymyL_16wgpu_3dgs_viewer6cameraNtB2_6Camera11get_forward
FN:40,_RNvMNtCsjAfDNjLymyL_16wgpu_3dgs_viewer6cameraNtB2_6Camera3new
FN:66,_RNvMNtCsjAfDNjLymyL_16wgpu_3dgs_viewer6cameraNtB2_6Camera6yaw_by
FN:51,_RNvMNtCsjAfDNjLymyL_16wgpu_3dgs_viewer6cameraNtB2_6Camera7move_by
FN:56,_RNvMNtCsjAfDNjLymyL_16wgpu_3dgs_viewer6cameraNtB2_6Camera7move_up
FN:61,_RNvMNtCsjAfDNjLymyL_16wgpu_3dgs_viewer6cameraNtB2_6Camera8pitch_by
FN:80,_RNvMNtCsjAfDNjLymyL_16wgpu_3dgs_viewer6cameraNtB2_6Camera9get_right
FN:90,_RNvXs_NtCsjAfDNjLymyL_16wgpu_3dgs_viewer6cameraNtB4_6CameraNtB4_11CameraTrait10projection
FN:86,_RNvXs_NtCsjAfDNjLymyL_16wgpu_3dgs_viewer6cameraNtB4_6CameraNtB4_11CameraTrait4view
FN:71,_RNvMNtCsjMvbNGsYfvH_16wgpu_3dgs_viewer6cameraNtB2_6Camera11get_forward
FN:40,_RNvMNtCsjMvbNGsYfvH_16wgpu_3dgs_viewer6cameraNtB2_6Camera3new
FN:66,_RNvMNtCsjMvbNGsYfvH_16wgpu_3dgs_viewer6cameraNtB2_6Camera6yaw_by
FN:51,_RNvMNtCsjMvbNGsYfvH_16wgpu_3dgs_viewer6cameraNtB2_6Camera7move_by
FN:56,_RNvMNtCsjMvbNGsYfvH_16wgpu_3dgs_viewer6cameraNtB2_6Camera7move_up
FN:61,_RNvMNtCsjMvbNGsYfvH_16wgpu_3dgs_viewer6cameraNtB2_6Camera8pitch_by
FN:80,_RNvMNtCsjMvbNGsYfvH_16wgpu_3dgs_viewer6cameraNtB2_6Camera9get_right
FN:90,_RNvXs_NtCsjMvbNGsYfvH_16wgpu_3dgs_viewer6cameraNtB4_6CameraNtB4_11CameraTrait10projection
FN:86,_RNvXs_NtCsjMvbNGsYfvH_16wgpu_3dgs_viewer6cameraNtB4_6CameraNtB4_11CameraTrait4view
FNDA:453,_RNvMNtCsjAfDNjLymyL_16wgpu_3dgs_viewer6cameraNtB2_6Camera11get_forward
FNDA:16,_RNvMNtCsjAfDNjLymyL_16wgpu_3dgs_viewer6cameraNtB2_6Camera3new
FNDA:146,_RNvMNtCsjAfDNjLymyL_16wgpu_3dgs_viewer6cameraNtB2_6Camera6yaw_by
FNDA:145,_RNvMNtCsjAfDNjLymyL_16wgpu_3dgs_viewer6cameraNtB2_6Camera7move_by
FNDA:145,_RNvMNtCsjAfDNjLymyL_16wgpu_3dgs_viewer6cameraNtB2_6Camera7move_up
FNDA:146,_RNvMNtCsjAfDNjLymyL_16wgpu_3dgs_viewer6cameraNtB2_6Camera8pitch_by
FNDA:145,_RNvMNtCsjAfDNjLymyL_16wgpu_3dgs_viewer6cameraNtB2_6Camera9get_right
FNDA:163,_RNvXs_NtCsjAfDNjLymyL_16wgpu_3dgs_viewer6cameraNtB4_6CameraNtB4_11CameraTrait10projection
FNDA:163,_RNvXs_NtCsjAfDNjLymyL_16wgpu_3dgs_viewer6cameraNtB4_6CameraNtB4_11CameraTrait4view
FNDA:0,_RNvMNtCsjMvbNGsYfvH_16wgpu_3dgs_viewer6cameraNtB2_6Camera11get_forward
FNDA:0,_RNvMNtCsjMvbNGsYfvH_16wgpu_3dgs_viewer6cameraNtB2_6Camera3new
FNDA:0,_RNvMNtCsjMvbNGsYfvH_16wgpu_3dgs_viewer6cameraNtB2_6Camera6yaw_by
FNDA:0,_RNvMNtCsjMvbNGsYfvH_16wgpu_3dgs_viewer6cameraNtB2_6Camera7move_by
FNDA:0,_RNvMNtCsjMvbNGsYfvH_16wgpu_3dgs_viewer6cameraNtB2_6Camera7move_up
FNDA:0,_RNvMNtCsjMvbNGsYfvH_16wgpu_3dgs_viewer6cameraNtB2_6Camera8pitch_by
FNDA:0,_RNvMNtCsjMvbNGsYfvH_16wgpu_3dgs_viewer6cameraNtB2_6Camera9get_right
FNDA:0,_RNvXs_NtCsjMvbNGsYfvH_16wgpu_3dgs_viewer6cameraNtB4_6CameraNtB4_11CameraTrait10projection
FNDA:0,_RNvXs_NtCsjMvbNGsYfvH_16wgpu_3dgs_viewer6cameraNtB4_6CameraNtB4_11CameraTrait4view
FNF:9
FNH:9
DA:40,16
DA:41,16
DA:42,16
DA:43,16
DA:44,16
DA:45,16
DA:46,16
DA:47,16
DA:48,16
DA:51,145
DA:52,145
DA:53,145
DA:56,145
DA:57,145
DA:58,145
DA:61,146
DA:62,146
DA:63,146
DA:66,146
DA:67,146
DA:68,146
DA:71,453
DA:72,453
DA:73,453
DA:74,453
DA:75,453
DA:77,453
DA:80,145
DA:81,145
DA:82,145
DA:86,163
DA:87,163
DA:88,163
DA:90,163
DA:91,163
DA:92,163
BRF:0
BRH:0
LF:36
LH:36
end_of_record
SF:C:\Users\s2010\Me\Codes\Rust\wgpu-3dgs-viewer\src\lib.rs
FN:216,_RNvMCsjAfDNjLymyL_16wgpu_3dgs_viewerNtB2_6Viewer22update_camera_with_podCskHWTcKnagmk_3mod
FN:221,_RNvMCsjAfDNjLymyL_16wgpu_3dgs_viewerNtB2_6Viewer22update_model_transformCskHWTcKnagmk_3mod
FN:241,_RNvMCsjAfDNjLymyL_16wgpu_3dgs_viewerNtB2_6Viewer25update_gaussian_transformCskHWTcKnagmk_3mod
FN:232,_RNvMCsjAfDNjLymyL_16wgpu_3dgs_viewerNtB2_6Viewer31update_model_transform_with_podCskHWTcKnagmk_3mod
FN:255,_RNvMCsjAfDNjLymyL_16wgpu_3dgs_viewerNtB2_6Viewer34update_gaussian_transform_with_podCskHWTcKnagmk_3mod
FN:85,_RNvMCsjAfDNjLymyL_16wgpu_3dgs_viewerNtB2_6Viewer3newCskHWTcKnagmk_3mod
FN:264,_RNvMCsjAfDNjLymyL_16wgpu_3dgs_viewerNtB2_6Viewer6renderCskHWTcKnagmk_3mod
FN:104,_RNvMCsjAfDNjLymyL_16wgpu_3dgs_viewerNtB2_6Viewer8new_withCskHWTcKnagmk_3mod
FN:206,_RINvMCsjMvbNGsYfvH_16wgpu_3dgs_viewerINtB3_6ViewerpE13update_camerapEB3_
FN:216,_RNvMCsjMvbNGsYfvH_16wgpu_3dgs_viewerINtB2_6ViewerpE22update_camera_with_podB2_
FN:221,_RNvMCsjMvbNGsYfvH_16wgpu_3dgs_viewerINtB2_6ViewerpE22update_model_transformB2_
FN:241,_RNvMCsjMvbNGsYfvH_16wgpu_3dgs_viewerINtB2_6ViewerpE25update_gaussian_transformB2_
FN:232,_RNvMCsjMvbNGsYfvH_16wgpu_3dgs_viewerINtB2_6ViewerpE31update_model_transform_with_podB2_
FN:255,_RNvMCsjMvbNGsYfvH_16wgpu_3dgs_viewerINtB2_6ViewerpE34update_gaussian_transform_with_podB2_
FN:85,_RNvMCsjMvbNGsYfvH_16wgpu_3dgs_viewerINtB2_6ViewerpE3newB2_
FN:264,_RNvMCsjMvbNGsYfvH_16wgpu_3dgs_viewerINtB2_6ViewerpE6renderB2_
FN:104,_RNvMCsjMvbNGsYfvH_16wgpu_3dgs_viewerINtB2_6ViewerpE8new_withB2_
FN:206,_RINvMCsjAfDNjLymyL_16wgpu_3dgs_viewerNtB3_6Viewer13update_cameraNtNtB3_6camera6CameraECsaEBMRA9cDqq_9selection
FN:221,_RNvMCsjAfDNjLymyL_16wgpu_3dgs_viewerNtB2_6Viewer22update_model_transformCsaEBMRA9cDqq_9selection
FN:264,_RNvMCsjAfDNjLymyL_16wgpu_3dgs_viewerNtB2_6Viewer6renderCsaEBMRA9cDqq_9selection
FN:104,_RNvMCsjAfDNjLymyL_16wgpu_3dgs_viewerNtB2_6Viewer8new_withCsaEBMRA9cDqq_9selection
FN:206,_RINvMCsjAfDNjLymyL_16wgpu_3dgs_viewerNtB3_6Viewer13update_cameraNtNtB3_6camera6CameraECsiA5QZE4OIiA_6simple
FN:221,_RNvMCsjAfDNjLymyL_16wgpu_3dgs_viewerNtB2_6Viewer22update_model_transformCsiA5QZE4OIiA_6simple
FN:241,_RNvMCsjAfDNjLymyL_16wgpu_3dgs_viewerNtB2_6Viewer25update_gaussian_transformCsiA5QZE4OIiA_6simple
FN:85,_RNvMCsjAfDNjLymyL_16wgpu_3dgs_viewerNtB2_6Viewer3newCsiA5QZE4OIiA_6simple
FN:264,_RNvMCsjAfDNjLymyL_16wgpu_3dgs_viewerNtB2_6Viewer6renderCsiA5QZE4OIiA_6simple
FN:104,_RNvMCsjAfDNjLymyL_16wgpu_3dgs_viewerNtB2_6Viewer8new_withCsiA5QZE4OIiA_6simple
FNDA:10,_RNvMCsjAfDNjLymyL_16wgpu_3dgs_viewerNtB2_6Viewer22update_camera_with_podCskHWTcKnagmk_3mod
FNDA:1,_RNvMCsjAfDNjLymyL_16wgpu_3dgs_viewerNtB2_6Viewer22update_model_transformCskHWTcKnagmk_3mod
FNDA:1,_RNvMCsjAfDNjLymyL_16wgpu_3dgs_viewerNtB2_6Viewer25update_gaussian_transformCskHWTcKnagmk_3mod
FNDA:1,_RNvMCsjAfDNjLymyL_16wgpu_3dgs_viewerNtB2_6Viewer31update_model_transform_with_podCskHWTcKnagmk_3mod
FNDA:1,_RNvMCsjAfDNjLymyL_16wgpu_3dgs_viewerNtB2_6Viewer34update_gaussian_transform_with_podCskHWTcKnagmk_3mod
FNDA:5,_RNvMCsjAfDNjLymyL_16wgpu_3dgs_viewerNtB2_6Viewer3newCskHWTcKnagmk_3mod
FNDA:10,_RNvMCsjAfDNjLymyL_16wgpu_3dgs_viewerNtB2_6Viewer6renderCskHWTcKnagmk_3mod
FNDA:10,_RNvMCsjAfDNjLymyL_16wgpu_3dgs_viewerNtB2_6Viewer8new_withCskHWTcKnagmk_3mod
FNDA:0,_RINvMCsjMvbNGsYfvH_16wgpu_3dgs_viewerINtB3_6ViewerpE13update_camerapEB3_
FNDA:0,_RNvMCsjMvbNGsYfvH_16wgpu_3dgs_viewerINtB2_6ViewerpE22update_camera_with_podB2_
FNDA:0,_RNvMCsjMvbNGsYfvH_16wgpu_3dgs_viewerINtB2_6ViewerpE22update_model_transformB2_
FNDA:0,_RNvMCsjMvbNGsYfvH_16wgpu_3dgs_viewerINtB2_6ViewerpE25update_gaussian_transformB2_
FNDA:0,_RNvMCsjMvbNGsYfvH_16wgpu_3dgs_viewerINtB2_6ViewerpE31update_model_transform_with_podB2_
FNDA:0,_RNvMCsjMvbNGsYfvH_16wgpu_3dgs_viewerINtB2_6ViewerpE34update_gaussian_transform_with_podB2_
FNDA:0,_RNvMCsjMvbNGsYfvH_16wgpu_3dgs_viewerINtB2_6ViewerpE3newB2_
FNDA:0,_RNvMCsjMvbNGsYfvH_16wgpu_3dgs_viewerINtB2_6ViewerpE6renderB2_
FNDA:0,_RNvMCsjMvbNGsYfvH_16wgpu_3dgs_viewerINtB2_6ViewerpE8new_withB2_
FNDA:145,_RINvMCsjAfDNjLymyL_16wgpu_3dgs_viewerNtB3_6Viewer13update_cameraNtNtB3_6camera6CameraECsaEBMRA9cDqq_9selection
FNDA:1,_RNvMCsjAfDNjLymyL_16wgpu_3dgs_viewerNtB2_6Viewer22update_model_transformCsaEBMRA9cDqq_9selection
FNDA:145,_RNvMCsjAfDNjLymyL_16wgpu_3dgs_viewerNtB2_6Viewer6renderCsaEBMRA9cDqq_9selection
FNDA:1,_RNvMCsjAfDNjLymyL_16wgpu_3dgs_viewerNtB2_6Viewer8new_withCsaEBMRA9cDqq_9selection
FNDA:0,_RINvMCsjAfDNjLymyL_16wgpu_3dgs_viewerNtB3_6Viewer13update_cameraNtNtB3_6camera6CameraECsiA5QZE4OIiA_6simple
FNDA:0,_RNvMCsjAfDNjLymyL_16wgpu_3dgs_viewerNtB2_6Viewer22update_model_transformCsiA5QZE4OIiA_6simple
FNDA:0,_RNvMCsjAfDNjLymyL_16wgpu_3dgs_viewerNtB2_6Viewer25update_gaussian_transformCsiA5QZE4OIiA_6simple
FNDA:0,_RNvMCsjAfDNjLymyL_16wgpu_3dgs_viewerNtB2_6Viewer3newCsiA5QZE4OIiA_6simple
FNDA:0,_RNvMCsjAfDNjLymyL_16wgpu_3dgs_viewerNtB2_6Viewer6renderCsiA5QZE4OIiA_6simple
FNDA:0,_RNvMCsjAfDNjLymyL_16wgpu_3dgs_viewerNtB2_6Viewer8new_withCsiA5QZE4OIiA_6simple
FNF:9
FNH:9
DA:85,5
DA:86,5
DA:87,5
DA:88,5
DA:89,5
DA:90,5
DA:91,5
DA:92,5
DA:93,5
DA:95,5
DA:97,5
DA:104,11
DA:105,11
DA:106,11
DA:107,11
DA:108,11
DA:109,11
DA:110,11
DA:111,11
DA:112,11
DA:114,11
DA:115,11
DA:117,11
DA:118,11
DA:120,11
DA:121,11
DA:122,11
DA:124,11
DA:125,11
DA:127,11
DA:128,11
DA:130,11
DA:131,11
DA:132,11
DA:134,11
DA:135,11
DA:136,11
DA:139,11
DA:140,11
DA:141,11
DA:145,11
DA:146,11
DA:147,11
DA:150,11
DA:151,11
DA:152,11
DA:153,11
DA:154,11
DA:155,11
DA:156,11
DA:157,11
DA:158,11
DA:159,11
DA:160,11
DA:162,11
DA:164,11
DA:165,0
DA:167,11
DA:168,11
DA:169,11
DA:171,11
DA:172,11
DA:173,11
DA:174,11
DA:175,11
DA:176,11
DA:177,11
DA:178,11
DA:179,11
DA:180,11
DA:181,0
DA:183,11
DA:185,11
DA:186,11
DA:187,11
DA:188,11
DA:189,11
DA:190,11
DA:191,11
DA:192,11
DA:193,11
DA:194,11
DA:195,11
DA:196,11
DA:197,11
DA:198,11
DA:199,11
DA:200,11
DA:201,11
DA:202,11
DA:203,11
DA:206,145
DA:207,145
DA:208,145
DA:209,145
DA:210,145
DA:211,145
DA:212,145
DA:213,145
DA:216,10
DA:217,10
DA:218,10
DA:221,2
DA:222,2
DA:223,2
DA:224,2
DA:225,2
DA:226,2
DA:227,2
DA:228,2
DA:229,2
DA:232,1
DA:233,1
DA:234,1
DA:235,1
DA:236,1
DA:237,1
DA:238,1
DA:241,1
DA:242,1
DA:243,1
DA:244,1
DA:245,1
DA:246,1
DA:247,1
DA:248,1
DA:249,1
DA:250,1
DA:251,1
DA:252,1
DA:255,1
DA:256,1
DA:257,1
DA:258,1
DA:259,1
DA:260,1
DA:261,1
DA:264,155
DA:265,155
DA:266,155
DA:268,155
DA:269,155
DA:271,155
DA:272,155
DA:273,155
BRF:0
BRH:0
LF:145
LH:143
end_of_record
SF:C:\Users\s2010\Me\Codes\Rust\wgpu-3dgs-viewer\src\multi_model.rs
FN:28,_RINvMNtCsjMvbNGsYfvH_16wgpu_3dgs_viewer11multi_modelNtB3_28MultiModelViewerWorldBuffers13update_camerapEB5_
FN:217,_RINvMs0_NtCsjMvbNGsYfvH_16wgpu_3dgs_viewer11multi_modelNtB6_26MultiModelViewerBindGroups3newpEB8_
FN:371,_RINvMs1_NtCsjMvbNGsYfvH_16wgpu_3dgs_viewer11multi_modelINtB6_16MultiModelViewerppE13update_camerapEB8_
FN:458,_RNCNvMs1_NtCsjMvbNGsYfvH_16wgpu_3dgs_viewer11multi_modelINtB7_16MultiModelViewerppE6render0B9_
FN:38,_RNvMNtCsjMvbNGsYfvH_16wgpu_3dgs_viewer11multi_modelNtB2_28MultiModelViewerWorldBuffers22update_camera_with_pod
FN:43,_RNvMNtCsjMvbNGsYfvH_16wgpu_3dgs_viewer11multi_modelNtB2_28MultiModelViewerWorldBuffers25update_gaussian_transform
FN:57,_RNvMNtCsjMvbNGsYfvH_16wgpu_3dgs_viewer11multi_modelNtB2_28MultiModelViewerWorldBuffers34update_gaussian_transform_with_pod
FN:14,_RNvMNtCsjMvbNGsYfvH_16wgpu_3dgs_viewer11multi_modelNtB2_28MultiModelViewerWorldBuffers3new
FN:326,_RNvMs1_NtCsjMvbNGsYfvH_16wgpu_3dgs_viewer11multi_modelINtB5_16MultiModelViewerppE12insert_modelB7_
FN:366,_RNvMs1_NtCsjMvbNGsYfvH_16wgpu_3dgs_viewer11multi_modelINtB5_16MultiModelViewerppE12remove_modelB7_
FN:339,_RNvMs1_NtCsjMvbNGsYfvH_16wgpu_3dgs_viewer11multi_modelINtB5_16MultiModelViewerppE17insert_model_withB7_
FN:382,_RNvMs1_NtCsjMvbNGsYfvH_16wgpu_3dgs_viewer11multi_modelINtB5_16MultiModelViewerppE22update_camera_with_podB7_
FN:387,_RNvMs1_NtCsjMvbNGsYfvH_16wgpu_3dgs_viewer11multi_modelINtB5_16MultiModelViewerppE22update_model_transformB7_
FN:419,_RNvMs1_NtCsjMvbNGsYfvH_16wgpu_3dgs_viewer11multi_modelINtB5_16MultiModelViewerppE25update_gaussian_transformB7_
FN:404,_RNvMs1_NtCsjMvbNGsYfvH_16wgpu_3dgs_viewer11multi_modelINtB5_16MultiModelViewerppE31update_model_transform_with_podB7_
FN:439,_RNvMs1_NtCsjMvbNGsYfvH_16wgpu_3dgs_viewer11multi_modelINtB5_16MultiModelViewerppE34update_gaussian_transform_with_podB7_
FN:284,_RNvMs1_NtCsjMvbNGsYfvH_16wgpu_3dgs_viewer11multi_modelINtB5_16MultiModelViewerppE3newB7_
FN:450,_RNvMs1_NtCsjMvbNGsYfvH_16wgpu_3dgs_viewer11multi_modelINtB5_16MultiModelViewerppE6renderB7_
FN:295,_RNvMs1_NtCsjMvbNGsYfvH_16wgpu_3dgs_viewer11multi_modelINtB5_16MultiModelViewerppE8new_withB7_
FN:187,_RNvMs_NtCsjMvbNGsYfvH_16wgpu_3dgs_viewer11multi_modelINtB4_31MultiModelViewerGaussianBufferspE22update_model_transformB6_
FN:198,_RNvMs_NtCsjMvbNGsYfvH_16wgpu_3dgs_viewer11multi_modelINtB4_31MultiModelViewerGaussianBufferspE31update_model_transform_with_podB6_
FN:83,_RNvMs_NtCsjMvbNGsYfvH_16wgpu_3dgs_viewer11multi_modelINtB4_31MultiModelViewerGaussianBufferspE3newB6_
FN:88,_RNvMs_NtCsjMvbNGsYfvH_16wgpu_3dgs_viewer11multi_modelINtB4_31MultiModelViewerGaussianBufferspE8new_withB6_
FN:141,_RNvMs_NtCsjMvbNGsYfvH_16wgpu_3dgs_viewer11multi_modelINtB4_31MultiModelViewerGaussianBufferspE9new_emptyB6_
FN:28,_RINvMNtCsjAfDNjLymyL_16wgpu_3dgs_viewer11multi_modelNtB3_28MultiModelViewerWorldBuffers13update_cameraNtNtB5_6camera6CameraECsgCUhY3MwoBc_11multi_model
FN:217,_RINvMs0_NtCsjAfDNjLymyL_16wgpu_3dgs_viewer11multi_modelNtB6_26MultiModelViewerBindGroups3newNtNtNtCs7uIZbJPR652_14wgpu_3dgs_core6buffer8gaussian41GaussianPodWithShSingleCov3dSingleConfigsECsgCUhY3MwoBc_11multi_model
FN:371,_RINvMs1_NtCsjAfDNjLymyL_16wgpu_3dgs_viewer11multi_modelINtB6_16MultiModelViewerNtNtNtCs7uIZbJPR652_14wgpu_3dgs_core6buffer8gaussian41GaussianPodWithShSingleCov3dSingleConfigsjE13update_cameraNtNtB8_6camera6CameraECsgCUhY3MwoBc_11multi_model
FN:458,_RNCNvMs1_NtCsjAfDNjLymyL_16wgpu_3dgs_viewer11multi_modelINtB7_16MultiModelViewerNtNtNtCs7uIZbJPR652_14wgpu_3dgs_core6buffer8gaussian41GaussianPodWithShSingleCov3dSingleConfigsjE6render0CsgCUhY3MwoBc_11multi_model
FN:326,_RNvMs1_NtCsjAfDNjLymyL_16wgpu_3dgs_viewer11multi_modelINtB5_16MultiModelViewerNtNtNtCs7uIZbJPR652_14wgpu_3dgs_core6buffer8gaussian41GaussianPodWithShSingleCov3dSingleConfigsjE12insert_modelCsgCUhY3MwoBc_11multi_model
FN:339,_RNvMs1_NtCsjAfDNjLymyL_16wgpu_3dgs_viewer11multi_modelINtB5_16MultiModelViewerNtNtNtCs7uIZbJPR652_14wgpu_3dgs_core6buffer8gaussian41GaussianPodWithShSingleCov3dSingleConfigsjE17insert_model_withCsgCUhY3MwoBc_11multi_model
FN:387,_RNvMs1_NtCsjAfDNjLymyL_16wgpu_3dgs_viewer11multi_modelINtB5_16MultiModelViewerNtNtNtCs7uIZbJPR652_14wgpu_3dgs_core6buffer8gaussian41GaussianPodWithShSingleCov3dSingleConfigsjE22update_model_transformCsgCUhY3MwoBc_11multi_model
FN:284,_RNvMs1_NtCsjAfDNjLymyL_16wgpu_3dgs_viewer11multi_modelINtB5_16MultiModelViewerNtNtNtCs7uIZbJPR652_14wgpu_3dgs_core6buffer8gaussian41GaussianPodWithShSingleCov3dSingleConfigsjE3newCsgCUhY3MwoBc_11multi_model
FN:450,_RNvMs1_NtCsjAfDNjLymyL_16wgpu_3dgs_viewer11multi_modelINtB5_16MultiModelViewerNtNtNtCs7uIZbJPR652_14wgpu_3dgs_core6buffer8gaussian41GaussianPodWithShSingleCov3dSingleConfigsjE6renderCsgCUhY3MwoBc_11multi_model
FN:295,_RNvMs1_NtCsjAfDNjLymyL_16wgpu_3dgs_viewer11multi_modelINtB5_16MultiModelViewerNtNtNtCs7uIZbJPR652_14wgpu_3dgs_core6buffer8gaussian41GaussianPodWithShSingleCov3dSingleConfigsjE8new_withCsgCUhY3MwoBc_11multi_model
FN:187,_RNvMs_NtCsjAfDNjLymyL_16wgpu_3dgs_viewer11multi_modelNtB4_31MultiModelViewerGaussianBuffers22update_model_transformCsgCUhY3MwoBc_11multi_model
FN:88,_RNvMs_NtCsjAfDNjLymyL_16wgpu_3dgs_viewer11multi_modelNtB4_31MultiModelViewerGaussianBuffers8new_withCsgCUhY3MwoBc_11multi_model
FN:38,_RNvMNtCsjAfDNjLymyL_16wgpu_3dgs_viewer11multi_modelNtB2_28MultiModelViewerWorldBuffers22update_camera_with_pod
FN:43,_RNvMNtCsjAfDNjLymyL_16wgpu_3dgs_viewer11multi_modelNtB2_28MultiModelViewerWorldBuffers25update_gaussian_transform
FN:57,_RNvMNtCsjAfDNjLymyL_16wgpu_3dgs_viewer11multi_modelNtB2_28MultiModelViewerWorldBuffers34update_gaussian_transform_with_pod
FN:14,_RNvMNtCsjAfDNjLymyL_16wgpu_3dgs_viewer11multi_modelNtB2_28MultiModelViewerWorldBuffers3new
FNDA:0,_RINvMNtCsjMvbNGsYfvH_16wgpu_3dgs_viewer11multi_modelNtB3_28MultiModelViewerWorldBuffers13update_camerapEB5_
FNDA:0,_RINvMs0_NtCsjMvbNGsYfvH_16wgpu_3dgs_viewer11multi_modelNtB6_26MultiModelViewerBindGroups3newpEB8_
FNDA:0,_RINvMs1_NtCsjMvbNGsYfvH_16wgpu_3dgs_viewer11multi_modelINtB6_16MultiModelViewerppE13update_camerapEB8_
FNDA:0,_RNCNvMs1_NtCsjMvbNGsYfvH_16wgpu_3dgs_viewer11multi_modelINtB7_16MultiModelViewerppE6render0B9_
FNDA:0,_RNvMNtCsjMvbNGsYfvH_16wgpu_3dgs_viewer11multi_modelNtB2_28MultiModelViewerWorldBuffers22update_camera_with_pod
FNDA:0,_RNvMNtCsjMvbNGsYfvH_16wgpu_3dgs_viewer11multi_modelNtB2_28MultiModelViewerWorldBuffers25update_gaussian_transform
FNDA:0,_RNvMNtCsjMvbNGsYfvH_16wgpu_3dgs_viewer11multi_modelNtB2_28MultiModelViewerWorldBuffers34update_gaussian_transform_with_pod
FNDA:0,_RNvMNtCsjMvbNGsYfvH_16wgpu_3dgs_viewer11multi_modelNtB2_28MultiModelViewerWorldBuffers3new
FNDA:0,_RNvMs1_NtCsjMvbNGsYfvH_16wgpu_3dgs_viewer11multi_modelINtB5_16MultiModelViewerppE12insert_modelB7_
FNDA:0,_RNvMs1_NtCsjMvbNGsYfvH_16wgpu_3dgs_viewer11multi_modelINtB5_16MultiModelViewerppE12remove_modelB7_
FNDA:0,_RNvMs1_NtCsjMvbNGsYfvH_16wgpu_3dgs_viewer11multi_modelINtB5_16MultiModelViewerppE17insert_model_withB7_
FNDA:0,_RNvMs1_NtCsjMvbNGsYfvH_16wgpu_3dgs_viewer11multi_modelINtB5_16MultiModelViewerppE22update_camera_with_podB7_
FNDA:0,_RNvMs1_NtCsjMvbNGsYfvH_16wgpu_3dgs_viewer11multi_modelINtB5_16MultiModelViewerppE22update_model_transformB7_
FNDA:0,_RNvMs1_NtCsjMvbNGsYfvH_16wgpu_3dgs_viewer11multi_modelINtB5_16MultiModelViewerppE25update_gaussian_transformB7_
FNDA:0,_RNvMs1_NtCsjMvbNGsYfvH_16wgpu_3dgs_viewer11multi_modelINtB5_16MultiModelViewerppE31update_model_transform_with_podB7_
FNDA:0,_RNvMs1_NtCsjMvbNGsYfvH_16wgpu_3dgs_viewer11multi_modelINtB5_16MultiModelViewerppE34update_gaussian_transform_with_podB7_
FNDA:0,_RNvMs1_NtCsjMvbNGsYfvH_16wgpu_3dgs_viewer11multi_modelINtB5_16MultiModelViewerppE3newB7_
FNDA:0,_RNvMs1_NtCsjMvbNGsYfvH_16wgpu_3dgs_viewer11multi_modelINtB5_16MultiModelViewerppE6renderB7_
FNDA:0,_RNvMs1_NtCsjMvbNGsYfvH_16wgpu_3dgs_viewer11multi_modelINtB5_16MultiModelViewerppE8new_withB7_
FNDA:0,_RNvMs_NtCsjMvbNGsYfvH_16wgpu_3dgs_viewer11multi_modelINtB4_31MultiModelViewerGaussianBufferspE22update_model_transformB6_
FNDA:0,_RNvMs_NtCsjMvbNGsYfvH_16wgpu_3dgs_viewer11multi_modelINtB4_31MultiModelViewerGaussianBufferspE31update_model_transform_with_podB6_
FNDA:0,_RNvMs_NtCsjMvbNGsYfvH_16wgpu_3dgs_viewer11multi_modelINtB4_31MultiModelViewerGaussianBufferspE3newB6_
FNDA:0,_RNvMs_NtCsjMvbNGsYfvH_16wgpu_3dgs_viewer11multi_modelINtB4_31MultiModelViewerGaussianBufferspE8new_withB6_
FNDA:0,_RNvMs_NtCsjMvbNGsYfvH_16wgpu_3dgs_viewer11multi_modelINtB4_31MultiModelViewerGaussianBufferspE9new_emptyB6_
FNDA:0,_RINvMNtCsjAfDNjLymyL_16wgpu_3dgs_viewer11multi_modelNtB3_28MultiModelViewerWorldBuffers13update_cameraNtNtB5_6camera6CameraECsgCUhY3MwoBc_11multi_model
FNDA:0,_RINvMs0_NtCsjAfDNjLymyL_16wgpu_3dgs_viewer11multi_modelNtB6_26MultiModelViewerBindGroups3newNtNtNtCs7uIZbJPR652_14wgpu_3dgs_core6buffer8gaussian41GaussianPodWithShSingleCov3dSingleConfigsECsgCUhY3MwoBc_11multi_model
FNDA:0,_RINvMs1_NtCsjAfDNjLymyL_16wgpu_3dgs_viewer11multi_modelINtB6_16MultiModelViewerNtNtNtCs7uIZbJPR652_14wgpu_3dgs_core6buffer8gaussian41GaussianPodWithShSingleCov3dSingleConfigsjE13update_cameraNtNtB8_6camera6CameraECsgCUhY3MwoBc_11multi_model
FNDA:0,_RNCNvMs1_NtCsjAfDNjLymyL_16wgpu_3dgs_viewer11multi_modelINtB7_16MultiModelViewerNtNtNtCs7uIZbJPR652_14wgpu_3dgs_core6buffer8gaussian41GaussianPodWithShSingleCov3dSingleConfigsjE6render0CsgCUhY3MwoBc_11multi_model
FNDA:0,_RNvMs1_NtCsjAfDNjLymyL_16wgpu_3dgs_viewer11multi_modelINtB5_16MultiModelViewerNtNtNtCs7uIZbJPR652_14wgpu_3dgs_core6buffer8gaussian41GaussianPodWithShSingleCov3dSingleConfigsjE12insert_modelCsgCUhY3MwoBc_11multi_model
FNDA:0,_RNvMs1_NtCsjAfDNjLymyL_16wgpu_3dgs_viewer11multi_modelINtB5_16MultiModelViewerNtNtNtCs7uIZbJPR652_14wgpu_3dgs_core6buffer8gaussian41GaussianPodWithShSingleCov3dSingleConfigsjE17insert_model_withCsgCUhY3MwoBc_11multi_model
FNDA:0,_RNvMs1_NtCsjAfDNjLymyL_16wgpu_3dgs_viewer11multi_modelINtB5_16MultiModelViewerNtNtNtCs7uIZbJPR652_14wgpu_3dgs_core6buffer8gaussian41GaussianPodWithShSingleCov3dSingleConfigsjE22update_model_transformCsgCUhY3MwoBc_11multi_model
FNDA:0,_RNvMs1_NtCsjAfDNjLymyL_16wgpu_3dgs_viewer11multi_modelINtB5_16MultiModelViewerNtNtNtCs7uIZbJPR652_14wgpu_3dgs_core6buffer8gaussian41GaussianPodWithShSingleCov3dSingleConfigsjE3newCsgCUhY3MwoBc_11multi_model
FNDA:0,_RNvMs1_NtCsjAfDNjLymyL_16wgpu_3dgs_viewer11multi_modelINtB5_16MultiModelViewerNtNtNtCs7uIZbJPR652_14wgpu_3dgs_core6buffer8gaussian41GaussianPodWithShSingleCov3dSingleConfigsjE6renderCsgCUhY3MwoBc_11multi_model
FNDA:0,_RNvMs1_NtCsjAfDNjLymyL_16wgpu_3dgs_viewer11multi_modelINtB5_16MultiModelViewerNtNtNtCs7uIZbJPR652_14wgpu_3dgs_core6buffer8gaussian41GaussianPodWithShSingleCov3dSingleConfigsjE8new_withCsgCUhY3MwoBc_11multi_model
FNDA:0,_RNvMs_NtCsjAfDNjLymyL_16wgpu_3dgs_viewer11multi_modelNtB4_31MultiModelViewerGaussianBuffers22update_model_transformCsgCUhY3MwoBc_11multi_model
FNDA:0,_RNvMs_NtCsjAfDNjLymyL_16wgpu_3dgs_viewer11multi_modelNtB4_31MultiModelViewerGaussianBuffers8new_withCsgCUhY3MwoBc_11multi_model
FNDA:0,_RNvMNtCsjAfDNjLymyL_16wgpu_3dgs_viewer11multi_modelNtB2_28MultiModelViewerWorldBuffers22update_camera_with_pod
FNDA:0,_RNvMNtCsjAfDNjLymyL_16wgpu_3dgs_viewer11multi_modelNtB2_28MultiModelViewerWorldBuffers25update_gaussian_transform
FNDA:0,_RNvMNtCsjAfDNjLymyL_16wgpu_3dgs_viewer11multi_modelNtB2_28MultiModelViewerWorldBuffers34update_gaussian_transform_with_pod
FNDA:0,_RNvMNtCsjAfDNjLymyL_16wgpu_3dgs_viewer11multi_modelNtB2_28MultiModelViewerWorldBuffers3new
FNF:24
FNH:0
DA:14,0
DA:15,0
DA:16,0
DA:18,0
DA:19,0
DA:21,0
DA:22,0
DA:23,0
DA:24,0
DA:25,0
DA:28,0
DA:29,0
DA:30,0
DA:31,0
DA:32,0
DA:33,0
DA:34,0
DA:35,0
DA:38,0
DA:39,0
DA:40,0
DA:43,0
DA:44,0
DA:45,0
DA:46,0
DA:47,0
DA:48,0
DA:49,0
DA:50,0
DA:51,0
DA:52,0
DA:53,0
DA:54,0
DA:57,0
DA:58,0
DA:59,0
DA:60,0
DA:61,0
DA:62,0
DA:63,0
DA:83,0
DA:84,0
DA:85,0
DA:88,0
DA:89,0
DA:90,0
DA:91,0
DA:92,0
DA:93,0
DA:94,0
DA:96,0
DA:97,0
DA:98,0
DA:100,0
DA:101,0
DA:103,0
DA:104,0
DA:106,0
DA:107,0
DA:108,0
DA:110,0
DA:111,0
DA:112,0
DA:115,0
DA:116,0
DA:117,0
DA:121,0
DA:122,0
DA:123,0
DA:126,0
DA:127,0
DA:128,0
DA:129,0
DA:130,0
DA:131,0
DA:132,0
DA:133,0
DA:134,0
DA:135,0
DA:136,0
DA:137,0
DA:138,0
DA:141,0
DA:142,0
DA:143,0
DA:145,0
DA:146,0
DA:148,0
DA:149,0
DA:151,0
DA:152,0
DA:154,0
DA:155,0
DA:157,0
DA:158,0
DA:161,0
DA:162,0
DA:163,0
DA:167,0
DA:168,0
DA:169,0
DA:172,0
DA:173,0
DA:174,0
DA:175,0
DA:176,0
DA:177,0
DA:178,0
DA:179,0
DA:180,0
DA:181,0
DA:182,0
DA:183,0
DA:184,0
DA:187,0
DA:188,0
DA:189,0
DA:190,0
DA:191,0
DA:192,0
DA:193,0
DA:194,0
DA:195,0
DA:198,0
DA:199,0
DA:200,0
DA:201,0
DA:202,0
DA:203,0
DA:204,0
DA:217,0
DA:218,0
DA:219,0
DA:220,0
DA:221,0
DA:222,0
DA:223,0
DA:224,0
DA:225,0
DA:226,0
DA:227,0
DA:228,0
DA:229,0
DA:230,0
DA:231,0
DA:232,0
DA:233,0
DA:234,0
DA:236,0
DA:238,0
DA:240,0
DA:241,0
DA:242,0
DA:243,0
DA:245,0
DA:246,0
DA:247,0
DA:248,0
DA:249,0
DA:250,0
DA:251,0
DA:254,0
DA:255,0
DA:256,0
DA:257,0
DA:258,0
DA:259,0
DA:284,0
DA:285,0
DA:286,0
DA:287,0
DA:288,0
DA:289,0
DA:295,0
DA:296,0
DA:297,0
DA:298,0
DA:299,0
DA:300,0
DA:302,0
DA:303,0
DA:305,0
DA:306,0
DA:308,0
DA:309,0
DA:311,0
DA:312,0
DA:314,0
DA:316,0
DA:317,0
DA:318,0
DA:319,0
DA:320,0
DA:321,0
DA:322,0
DA:323,0
DA:326,0
DA:327,0
DA:328,0
DA:329,0
DA:330,0
DA:331,0
DA:332,0
DA:333,0
DA:339,0
DA:340,0
DA:341,0
DA:342,0
DA:343,0
DA:344,0
DA:345,0
DA:346,0
DA:347,0
DA:348,0
DA:349,0
DA:350,0
DA:351,0
DA:352,0
DA:353,0
DA:354,0
DA:356,0
DA:357,0
DA:358,0
DA:359,0
DA:360,0
DA:361,0
DA:363,0
DA:366,0
DA:367,0
DA:368,0
DA:371,0
DA:372,0
DA:373,0
DA:374,0
DA:375,0
DA:376,0
DA:377,0
DA:378,0
DA:379,0
DA:382,0
DA:383,0
DA:384,0
DA:387,0
DA:388,0
DA:389,0
DA:390,0
DA:391,0
DA:392,0
DA:393,0
DA:394,0
DA:395,0
DA:396,0
DA:397,0
DA:399,0
DA:400,0
DA:401,0
DA:404,0
DA:405,0
DA:406,0
DA:407,0
DA:408,0
DA:409,0
DA:410,0
DA:411,0
DA:412,0
DA:414,0
DA:415,0
DA:416,0
DA:419,0
DA:420,0
DA:421,0
DA:422,0
DA:423,0
DA:424,0
DA:425,0
DA:426,0
DA:427,0
DA:428,0
DA:429,0
DA:430,0
DA:431,0
DA:432,0
DA:433,0
DA:434,0
DA:436,0
DA:439,0
DA:440,0
DA:441,0
DA:442,0
DA:443,0
DA:444,0
DA:445,0
DA:446,0
DA:447,0
DA:450,0
DA:451,0
DA:452,0
DA:453,0
DA:454,0
DA:455,0
DA:456,0
DA:457,0
DA:458,0
DA:459,0
DA:460,0
DA:461,0
DA:462,0
DA:463,0
DA:465,0
DA:466,0
DA:467,0
DA:468,0
DA:469,0
DA:470,0
DA:471,0
DA:472,0
DA:473,0
DA:474,0
DA:475,0
DA:476,0
DA:477,0
DA:480,0
DA:481,0
DA:482,0
DA:483,0
DA:484,0
DA:485,0
DA:486,0
DA:487,0
DA:488,0
DA:489,0
DA:490,0
DA:491,0
DA:492,0
DA:493,0
DA:494,0
DA:496,0
DA:497,0
DA:498,0
DA:499,0
DA:500,0
DA:501,0
DA:502,0
DA:505,0
DA:506,0
BRF:0
BRH:0
LF:346
LH:0
end_of_record
SF:C:\Users\s2010\Me\Codes\Rust\wgpu-3dgs-viewer\src\preprocessor.rs
FN:368,_RNCNvMs0_NtCsjAfDNjLymyL_16wgpu_3dgs_viewer12preprocessorINtB7_12PreprocessorNtNtNtCs7uIZbJPR652_14wgpu_3dgs_core6buffer8gaussian41GaussianPodWithShSingleCov3dSingleConfigsuE22new_without_bind_group0CskHWTcKnagmk_3mod
FN:37,_RNvMNtCsjAfDNjLymyL_16wgpu_3dgs_viewer12preprocessorINtB2_12PreprocessorNtNtNtCs7uIZbJPR652_14wgpu_3dgs_core6buffer8gaussian41GaussianPodWithShSingleCov3dSingleConfigsuE17create_bind_groupCskHWTcKnagmk_3mod
FN:355,_RNvMs0_NtCsjAfDNjLymyL_16wgpu_3dgs_viewer12preprocessorINtB5_12PreprocessorNtNtNtCs7uIZbJPR652_14wgpu_3dgs_core6buffer8gaussian41GaussianPodWithShSingleCov3dSingleConfigsuE22new_without_bind_groupCskHWTcKnagmk_3mod
FN:263,_RNvMs_NtCsjAfDNjLymyL_16wgpu_3dgs_viewer12preprocessorINtB4_12PreprocessorNtNtNtCs7uIZbJPR652_14wgpu_3dgs_core6buffer8gaussian41GaussianPodWithShSingleCov3dSingleConfigsE10preprocessCskHWTcKnagmk_3mod
FN:274,_RNvMs_NtCsjAfDNjLymyL_16wgpu_3dgs_viewer12preprocessorINtB4_12PreprocessorNtNtNtCs7uIZbJPR652_14wgpu_3dgs_core6buffer8gaussian41GaussianPodWithShSingleCov3dSingleConfigsE24create_bind_group_staticCskHWTcKnagmk_3mod
FN:210,_RNvMs_NtCsjAfDNjLymyL_16wgpu_3dgs_viewer12preprocessorINtB4_12PreprocessorNtNtNtCs7uIZbJPR652_14wgpu_3dgs_core6buffer8gaussian41GaussianPodWithShSingleCov3dSingleConfigsE3newCskHWTcKnagmk_3mod
FN:368,_RNCNvMs0_NtCsjMvbNGsYfvH_16wgpu_3dgs_viewer12preprocessorINtB7_12PreprocessorpuE22new_without_bind_group0B9_
FN:71,_RNvMNtCsjMvbNGsYfvH_16wgpu_3dgs_viewer12preprocessorINtB2_12PreprocessorppE14workgroup_sizeB4_
FN:76,_RNvMNtCsjMvbNGsYfvH_16wgpu_3dgs_viewer12preprocessorINtB2_12PreprocessorppE17bind_group_layoutB4_
FN:37,_RNvMNtCsjMvbNGsYfvH_16wgpu_3dgs_viewer12preprocessorINtB2_12PreprocessorppE17create_bind_groupB4_
FN:418,_RNvMs0_NtCsjMvbNGsYfvH_16wgpu_3dgs_viewer12preprocessorINtB5_12PreprocessorpuE10preprocessB7_
FN:355,_RNvMs0_NtCsjMvbNGsYfvH_16wgpu_3dgs_viewer12preprocessorINtB5_12PreprocessorpuE22new_without_bind_groupB7_
FN:263,_RNvMs_NtCsjMvbNGsYfvH_16wgpu_3dgs_viewer12preprocessorINtB4_12PreprocessorpE10preprocessB6_
FN:274,_RNvMs_NtCsjMvbNGsYfvH_16wgpu_3dgs_viewer12preprocessorINtB4_12PreprocessorpE24create_bind_group_staticB6_
FN:210,_RNvMs_NtCsjMvbNGsYfvH_16wgpu_3dgs_viewer12preprocessorINtB4_12PreprocessorpE3newB6_
FN:368,_RNCNvMs0_NtCsjAfDNjLymyL_16wgpu_3dgs_viewer12preprocessorINtB7_12PreprocessorNtNtNtCs7uIZbJPR652_14wgpu_3dgs_core6buffer8gaussian41GaussianPodWithShSingleCov3dSingleConfigsuE22new_without_bind_group0CsgCUhY3MwoBc_11multi_model
FN:37,_RNvMNtCsjAfDNjLymyL_16wgpu_3dgs_viewer12preprocessorINtB2_12PreprocessorNtNtNtCs7uIZbJPR652_14wgpu_3dgs_core6buffer8gaussian41GaussianPodWithShSingleCov3dSingleConfigsuE17create_bind_groupCsgCUhY3MwoBc_11multi_model
FN:418,_RNvMs0_NtCsjAfDNjLymyL_16wgpu_3dgs_viewer12preprocessorINtB5_12PreprocessorNtNtNtCs7uIZbJPR652_14wgpu_3dgs_core6buffer8gaussian41GaussianPodWithShSingleCov3dSingleConfigsuE10preprocessCsgCUhY3MwoBc_11multi_model
FN:355,_RNvMs0_NtCsjAfDNjLymyL_16wgpu_3dgs_viewer12preprocessorINtB5_12PreprocessorNtNtNtCs7uIZbJPR652_14wgpu_3dgs_core6buffer8gaussian41GaussianPodWithShSingleCov3dSingleConfigsuE22new_without_bind_groupCsgCUhY3MwoBc_11multi_model
FN:274,_RNvMs_NtCsjAfDNjLymyL_16wgpu_3dgs_viewer12preprocessorINtB4_12PreprocessorNtNtNtCs7uIZbJPR652_14wgpu_3dgs_core6buffer8gaussian41GaussianPodWithShSingleCov3dSingleConfigsE24create_bind_group_staticCsgCUhY3MwoBc_11multi_model
FN:368,_RNCNvMs0_NtCsjAfDNjLymyL_16wgpu_3dgs_viewer12preprocessorINtB7_12PreprocessorNtNtNtCs7uIZbJPR652_14wgpu_3dgs_core6buffer8gaussian41GaussianPodWithShSingleCov3dSingleConfigsuE22new_without_bind_group0CsaEBMRA9cDqq_9selection
FN:37,_RNvMNtCsjAfDNjLymyL_16wgpu_3dgs_viewer12preprocessorINtB2_12PreprocessorNtNtNtCs7uIZbJPR652_14wgpu_3dgs_core6buffer8gaussian41GaussianPodWithShSingleCov3dSingleConfigsuE17create_bind_groupCsaEBMRA9cDqq_9selection
FN:355,_RNvMs0_NtCsjAfDNjLymyL_16wgpu_3dgs_viewer12preprocessorINtB5_12PreprocessorNtNtNtCs7uIZbJPR652_14wgpu_3dgs_core6buffer8gaussian41GaussianPodWithShSingleCov3dSingleConfigsuE22new_without_bind_groupCsaEBMRA9cDqq_9selection
FN:263,_RNvMs_NtCsjAfDNjLymyL_16wgpu_3dgs_viewer12preprocessorINtB4_12PreprocessorNtNtNtCs7uIZbJPR652_14wgpu_3dgs_core6buffer8gaussian41GaussianPodWithShSingleCov3dSingleConfigsE10preprocessCsaEBMRA9cDqq_9selection
FN:274,_RNvMs_NtCsjAfDNjLymyL_16wgpu_3dgs_viewer12preprocessorINtB4_12PreprocessorNtNtNtCs7uIZbJPR652_14wgpu_3dgs_core6buffer8gaussian41GaussianPodWithShSingleCov3dSingleConfigsE24create_bind_group_staticCsaEBMRA9cDqq_9selection
FN:210,_RNvMs_NtCsjAfDNjLymyL_16wgpu_3dgs_viewer12preprocessorINtB4_12PreprocessorNtNtNtCs7uIZbJPR652_14wgpu_3dgs_core6buffer8gaussian41GaussianPodWithShSingleCov3dSingleConfigsE3newCsaEBMRA9cDqq_9selection
FN:368,_RNCNvMs0_NtCsjAfDNjLymyL_16wgpu_3dgs_viewer12preprocessorINtB7_12PreprocessorNtNtNtCs7uIZbJPR652_14wgpu_3dgs_core6buffer8gaussian41GaussianPodWithShSingleCov3dSingleConfigsuE22new_without_bind_group0CsiA5QZE4OIiA_6simple
FN:37,_RNvMNtCsjAfDNjLymyL_16wgpu_3dgs_viewer12preprocessorINtB2_12PreprocessorNtNtNtCs7uIZbJPR652_14wgpu_3dgs_core6buffer8gaussian41GaussianPodWithShSingleCov3dSingleConfigsuE17create_bind_groupCsiA5QZE4OIiA_6simple
FN:355,_RNvMs0_NtCsjAfDNjLymyL_16wgpu_3dgs_viewer12preprocessorINtB5_12PreprocessorNtNtNtCs7uIZbJPR652_14wgpu_3dgs_core6buffer8gaussian41GaussianPodWithShSingleCov3dSingleConfigsuE22new_without_bind_groupCsiA5QZE4OIiA_6simple
FN:263,_RNvMs_NtCsjAfDNjLymyL_16wgpu_3dgs_viewer12preprocessorINtB4_12PreprocessorNtNtNtCs7uIZbJPR652_14wgpu_3dgs_core6buffer8gaussian41GaussianPodWithShSingleCov3dSingleConfigsE10preprocessCsiA5QZE4OIiA_6simple
FN:274,_RNvMs_NtCsjAfDNjLymyL_16wgpu_3dgs_viewer12preprocessorINtB4_12PreprocessorNtNtNtCs7uIZbJPR652_14wgpu_3dgs_core6buffer8gaussian41GaussianPodWithShSingleCov3dSingleConfigsE24create_bind_group_staticCsiA5QZE4OIiA_6simple
FN:210,_RNvMs_NtCsjAfDNjLymyL_16wgpu_3dgs_viewer12preprocessorINtB4_12PreprocessorNtNtNtCs7uIZbJPR652_14wgpu_3dgs_core6buffer8gaussian41GaussianPodWithShSingleCov3dSingleConfigsE3newCsiA5QZE4OIiA_6simple
FNDA:80,_RNCNvMs0_NtCsjAfDNjLymyL_16wgpu_3dgs_viewer12preprocessorINtB7_12PreprocessorNtNtNtCs7uIZbJPR652_14wgpu_3dgs_core6buffer8gaussian41GaussianPodWithShSingleCov3dSingleConfigsuE22new_without_bind_group0CskHWTcKnagmk_3mod
FNDA:10,_RNvMNtCsjAfDNjLymyL_16wgpu_3dgs_viewer12preprocessorINtB2_12PreprocessorNtNtNtCs7uIZbJPR652_14wgpu_3dgs_core6buffer8gaussian41GaussianPodWithShSingleCov3dSingleConfigsuE17create_bind_groupCskHWTcKnagmk_3mod
FNDA:10,_RNvMs0_NtCsjAfDNjLymyL_16wgpu_3dgs_viewer12preprocessorINtB5_12PreprocessorNtNtNtCs7uIZbJPR652_14wgpu_3dgs_core6buffer8gaussian41GaussianPodWithShSingleCov3dSingleConfigsuE22new_without_bind_groupCskHWTcKnagmk_3mod
FNDA:10,_RNvMs_NtCsjAfDNjLymyL_16wgpu_3dgs_viewer12preprocessorINtB4_12PreprocessorNtNtNtCs7uIZbJPR652_14wgpu_3dgs_core6buffer8gaussian41GaussianPodWithShSingleCov3dSingleConfigsE10preprocessCskHWTcKnagmk_3mod
FNDA:10,_RNvMs_NtCsjAfDNjLymyL_16wgpu_3dgs_viewer12preprocessorINtB4_12PreprocessorNtNtNtCs7uIZbJPR652_14wgpu_3dgs_core6buffer8gaussian41GaussianPodWithShSingleCov3dSingleConfigsE24create_bind_group_staticCskHWTcKnagmk_3mod
FNDA:10,_RNvMs_NtCsjAfDNjLymyL_16wgpu_3dgs_viewer12preprocessorINtB4_12PreprocessorNtNtNtCs7uIZbJPR652_14wgpu_3dgs_core6buffer8gaussian41GaussianPodWithShSingleCov3dSingleConfigsE3newCskHWTcKnagmk_3mod
FNDA:0,_RNCNvMs0_NtCsjMvbNGsYfvH_16wgpu_3dgs_viewer12preprocessorINtB7_12PreprocessorpuE22new_without_bind_group0B9_
FNDA:0,_RNvMNtCsjMvbNGsYfvH_16wgpu_3dgs_viewer12preprocessorINtB2_12PreprocessorppE14workgroup_sizeB4_
FNDA:0,_RNvMNtCsjMvbNGsYfvH_16wgpu_3dgs_viewer12preprocessorINtB2_12PreprocessorppE17bind_group_layoutB4_
FNDA:0,_RNvMNtCsjMvbNGsYfvH_16wgpu_3dgs_viewer12preprocessorINtB2_12PreprocessorppE17create_bind_groupB4_
FNDA:0,_RNvMs0_NtCsjMvbNGsYfvH_16wgpu_3dgs_viewer12preprocessorINtB5_12PreprocessorpuE10preprocessB7_
FNDA:0,_RNvMs0_NtCsjMvbNGsYfvH_16wgpu_3dgs_viewer12preprocessorINtB5_12PreprocessorpuE22new_without_bind_groupB7_
FNDA:0,_RNvMs_NtCsjMvbNGsYfvH_16wgpu_3dgs_viewer12preprocessorINtB4_12PreprocessorpE10preprocessB6_
FNDA:0,_RNvMs_NtCsjMvbNGsYfvH_16wgpu_3dgs_viewer12preprocessorINtB4_12PreprocessorpE24create_bind_group_staticB6_
FNDA:0,_RNvMs_NtCsjMvbNGsYfvH_16wgpu_3dgs_viewer12preprocessorINtB4_12PreprocessorpE3newB6_
FNDA:0,_RNCNvMs0_NtCsjAfDNjLymyL_16wgpu_3dgs_viewer12preprocessorINtB7_12PreprocessorNtNtNtCs7uIZbJPR652_14wgpu_3dgs_core6buffer8gaussian41GaussianPodWithShSingleCov3dSingleConfigsuE22new_without_bind_group0CsgCUhY3MwoBc_11multi_model
FNDA:0,_RNvMNtCsjAfDNjLymyL_16wgpu_3dgs_viewer12preprocessorINtB2_12PreprocessorNtNtNtCs7uIZbJPR652_14wgpu_3dgs_core6buffer8gaussian41GaussianPodWithShSingleCov3dSingleConfigsuE17create_bind_groupCsgCUhY3MwoBc_11multi_model
FNDA:0,_RNvMs0_NtCsjAfDNjLymyL_16wgpu_3dgs_viewer12preprocessorINtB5_12PreprocessorNtNtNtCs7uIZbJPR652_14wgpu_3dgs_core6buffer8gaussian41GaussianPodWithShSingleCov3dSingleConfigsuE10preprocessCsgCUhY3MwoBc_11multi_model
FNDA:0,_RNvMs0_NtCsjAfDNjLymyL_16wgpu_3dgs_viewer12preprocessorINtB5_12PreprocessorNtNtNtCs7uIZbJPR652_14wgpu_3dgs_core6buffer8gaussian41GaussianPodWithShSingleCov3dSingleConfigsuE22new_without_bind_groupCsgCUhY3MwoBc_11multi_model
FNDA:0,_RNvMs_NtCsjAfDNjLymyL_16wgpu_3dgs_viewer12preprocessorINtB4_12PreprocessorNtNtNtCs7uIZbJPR652_14wgpu_3dgs_core6buffer8gaussian41GaussianPodWithShSingleCov3dSingleConfigsE24create_bind_group_staticCsgCUhY3MwoBc_11multi_model
FNDA:8,_RNCNvMs0_NtCsjAfDNjLymyL_16wgpu_3dgs_viewer12preprocessorINtB7_12PreprocessorNtNtNtCs7uIZbJPR652_14wgpu_3dgs_core6buffer8gaussian41GaussianPodWithShSingleCov3dSingleConfigsuE22new_without_bind_group0CsaEBMRA9cDqq_9selection
FNDA:1,_RNvMNtCsjAfDNjLymyL_16wgpu_3dgs_viewer12preprocessorINtB2_12PreprocessorNtNtNtCs7uIZbJPR652_14wgpu_3dgs_core6buffer8gaussian41GaussianPodWithShSingleCov3dSingleConfigsuE17create_bind_groupCsaEBMRA9cDqq_9selection
FNDA:1,_RNvMs0_NtCsjAfDNjLymyL_16wgpu_3dgs_viewer12preprocessorINtB5_12PreprocessorNtNtNtCs7uIZbJPR652_14wgpu_3dgs_core6buffer8gaussian41GaussianPodWithShSingleCov3dSingleConfigsuE22new_without_bind_groupCsaEBMRA9cDqq_9selection
FNDA:145,_RNvMs_NtCsjAfDNjLymyL_16wgpu_3dgs_viewer12preprocessorINtB4_12PreprocessorNtNtNtCs7uIZbJPR652_14wgpu_3dgs_core6buffer8gaussian41GaussianPodWithShSingleCov3dSingleConfigsE10preprocessCsaEBMRA9cDqq_9selection
FNDA:1,_RNvMs_NtCsjAfDNjLymyL_16wgpu_3dgs_viewer12preprocessorINtB4_12PreprocessorNtNtNtCs7uIZbJPR652_14wgpu_3dgs_core6buffer8gaussian41GaussianPodWithShSingleCov3dSingleConfigsE24create_bind_group_staticCsaEBMRA9cDqq_9selection
FNDA:1,_RNvMs_NtCsjAfDNjLymyL_16wgpu_3dgs_viewer12preprocessorINtB4_12PreprocessorNtNtNtCs7uIZbJPR652_14wgpu_3dgs_core6buffer8gaussian41GaussianPodWithShSingleCov3dSingleConfigsE3newCsaEBMRA9cDqq_9selection
FNDA:0,_RNCNvMs0_NtCsjAfDNjLymyL_16wgpu_3dgs_viewer12preprocessorINtB7_12PreprocessorNtNtNtCs7uIZbJPR652_14wgpu_3dgs_core6buffer8gaussian41GaussianPodWithShSingleCov3dSingleConfigsuE22new_without_bind_group0CsiA5QZE4OIiA_6simple
FNDA:0,_RNvMNtCsjAfDNjLymyL_16wgpu_3dgs_viewer12preprocessorINtB2_12PreprocessorNtNtNtCs7uIZbJPR652_14wgpu_3dgs_core6buffer8gaussian41GaussianPodWithShSingleCov3dSingleConfigsuE17create_bind_groupCsiA5QZE4OIiA_6simple
FNDA:0,_RNvMs0_NtCsjAfDNjLymyL_16wgpu_3dgs_viewer12preprocessorINtB5_12PreprocessorNtNtNtCs7uIZbJPR652_14wgpu_3dgs_core6buffer8gaussian41GaussianPodWithShSingleCov3dSingleConfigsuE22new_without_bind_groupCsiA5QZE4OIiA_6simple
FNDA:0,_RNvMs_NtCsjAfDNjLymyL_16wgpu_3dgs_viewer12preprocessorINtB4_12PreprocessorNtNtNtCs7uIZbJPR652_14wgpu_3dgs_core6buffer8gaussian41GaussianPodWithShSingleCov3dSingleConfigsE10preprocessCsiA5QZE4OIiA_6simple
FNDA:0,_RNvMs_NtCsjAfDNjLymyL_16wgpu_3dgs_viewer12preprocessorINtB4_12PreprocessorNtNtNtCs7uIZbJPR652_14wgpu_3dgs_core6buffer8gaussian41GaussianPodWithShSingleCov3dSingleConfigsE24create_bind_group_staticCsiA5QZE4OIiA_6simple
FNDA:0,_RNvMs_NtCsjAfDNjLymyL_16wgpu_3dgs_viewer12preprocessorINtB4_12PreprocessorNtNtNtCs7uIZbJPR652_14wgpu_3dgs_core6buffer8gaussian41GaussianPodWithShSingleCov3dSingleConfigsE3newCsiA5QZE4OIiA_6simple
FNF:9
FNH:6
DA:37,11
DA:38,11
DA:39,11
DA:40,11
DA:41,11
DA:42,11
DA:43,11
DA:44,11
DA:45,11
DA:46,11
DA:47,11
DA:48,11
DA:49,11
DA:50,11
DA:51,11
DA:52,11
DA:53,11
DA:54,11
DA:55,11
DA:56,11
DA:57,11
DA:58,11
DA:59,11
DA:60,11
DA:61,11
DA:62,11
DA:64,11
DA:66,11
DA:68,11
DA:71,0
DA:72,0
DA:73,0
DA:76,0
DA:77,0
DA:78,0
DA:210,11
DA:211,11
DA:212,11
DA:213,11
DA:214,11
DA:215,11
DA:216,11
DA:217,11
DA:218,11
DA:219,11
DA:220,11
DA:221,11
DA:222,11
DA:223,11
DA:224,11
DA:225,11
DA:227,0
DA:228,0
DA:229,0
DA:230,0
DA:231,11
DA:233,11
DA:235,11
DA:236,11
DA:237,11
DA:238,11
DA:239,11
DA:240,11
DA:241,11
DA:242,11
DA:243,11
DA:244,11
DA:245,11
DA:247,11
DA:249,11
DA:252,11
DA:253,11
DA:254,11
DA:255,11
DA:256,11
DA:257,11
DA:258,11
DA:259,11
DA:260,11
DA:263,155
DA:264,155
DA:266,155
DA:267,155
DA:269,155
DA:270,155
DA:274,11
DA:275,11
DA:276,11
DA:277,11
DA:278,11
DA:279,11
DA:280,11
DA:281,11
DA:282,11
DA:283,11
DA:284,11
DA:285,11
DA:286,11
DA:287,11
DA:288,11
DA:289,11
DA:290,11
DA:291,11
DA:292,11
DA:293,11
DA:294,11
DA:295,11
DA:296,11
DA:297,11
DA:298,11
DA:299,11
DA:300,11
DA:301,11
DA:302,11
DA:303,11
DA:304,11
DA:305,11
DA:306,11
DA:307,11
DA:308,11
DA:309,11
DA:310,11
DA:311,11
DA:312,11
DA:313,11
DA:314,11
DA:315,11
DA:316,11
DA:317,11
DA:318,11
DA:319,11
DA:320,11
DA:321,11
DA:322,11
DA:323,11
DA:324,11
DA:325,11
DA:326,11
DA:327,11
DA:328,11
DA:329,11
DA:330,11
DA:331,11
DA:332,11
DA:333,11
DA:334,11
DA:335,11
DA:336,11
DA:337,11
DA:338,11
DA:339,11
DA:340,11
DA:341,11
DA:342,11
DA:343,11
DA:344,11
DA:345,11
DA:346,11
DA:347,11
DA:355,11
DA:356,11
DA:357,11
DA:358,11
DA:360,11
DA:362,11
DA:363,11
DA:364,11
DA:365,11
DA:366,11
DA:367,11
DA:368,88
DA:369,11
DA:370,11
DA:372,11
DA:375,11
DA:376,11
DA:378,11
DA:379,11
DA:380,11
DA:381,11
DA:382,11
DA:383,11
DA:384,11
DA:385,11
DA:387,11
DA:388,11
DA:389,11
DA:390,11
DA:391,11
DA:392,11
DA:393,11
DA:394,11
DA:396,11
DA:397,11
DA:398,11
DA:399,11
DA:400,11
DA:401,11
DA:402,11
DA:403,11
DA:405,11
DA:407,11
DA:408,11
DA:409,11
DA:410,11
DA:411,11
DA:412,11
DA:413,11
DA:414,11
DA:415,11
DA:418,0
DA:419,0
DA:420,0
DA:421,0
DA:422,0
DA:423,0
DA:424,0
DA:426,0
DA:428,0
DA:429,0
BRF:0
BRH:0
LF:221
LH:201
end_of_record
SF:C:\Users\s2010\Me\Codes\Rust\wgpu-3dgs-viewer\src\radix_sorter.rs
FN:71,_RNvMs0_NtCsjAfDNjLymyL_16wgpu_3dgs_viewer12radix_sorterINtB5_11RadixSorteruE23new_without_bind_groups
FN:87,_RNvMs0_NtCsjAfDNjLymyL_16wgpu_3dgs_viewer12radix_sorterINtB5_11RadixSorteruE4sort
FN:36,_RNvMs_NtCsjAfDNjLymyL_16wgpu_3dgs_viewer12radix_sorterNtB4_11RadixSorter3new
FN:56,_RNvMs_NtCsjAfDNjLymyL_16wgpu_3dgs_viewer12radix_sorterNtB4_11RadixSorter4sort
FN:314,_RNvMNtNtCsjAfDNjLymyL_16wgpu_3dgs_viewer12radix_sorter9wgpu_sortNtB2_9GPUSorter17bind_group_layout
FN:485,_RNvMNtNtCsjAfDNjLymyL_16wgpu_3dgs_viewer12radix_sorter9wgpu_sortNtB2_9GPUSorter17general_info_data
FN:556,_RNvMNtNtCsjAfDNjLymyL_16wgpu_3dgs_viewer12radix_sorter9wgpu_sortNtB2_9GPUSorter23record_prefix_histogram
FN:459,_RNvMNtNtCsjAfDNjLymyL_16wgpu_3dgs_viewer12radix_sorter9wgpu_sortNtB2_9GPUSorter26create_internal_mem_buffer
FN:735,_RNvMNtNtCsjAfDNjLymyL_16wgpu_3dgs_viewer12radix_sorter9wgpu_sortNtB2_9GPUSorter28create_internal_sort_buffers
FN:598,_RNvMNtNtCsjAfDNjLymyL_16wgpu_3dgs_viewer12radix_sorter9wgpu_sortNtB2_9GPUSorter28record_scatter_keys_indirect
FN:429,_RNvMNtNtCsjAfDNjLymyL_16wgpu_3dgs_viewer12radix_sorter9wgpu_sortNtB2_9GPUSorter30create_internal_keyval_buffers
FN:526,_RNvMNtNtCsjAfDNjLymyL_16wgpu_3dgs_viewer12radix_sorter9wgpu_sortNtB2_9GPUSorter35record_calculate_histogram_indirect
FN:199,_RNvMNtNtCsjAfDNjLymyL_16wgpu_3dgs_viewer12radix_sorter9wgpu_sortNtB2_9GPUSorter3new
FN:927,_RNvNtNtCsjAfDNjLymyL_16wgpu_3dgs_viewer12radix_sorter9wgpu_sort15histo_blocks_ru
FN:932,_RNvNtNtCsjAfDNjLymyL_16wgpu_3dgs_viewer12radix_sorter9wgpu_sort16keys_buffer_size
FN:922,_RNvNtNtCsjAfDNjLymyL_16wgpu_3dgs_viewer12radix_sorter9wgpu_sort17scatter_blocks_ru
FN:937,_RNvNtNtCsjAfDNjLymyL_16wgpu_3dgs_viewer12radix_sorter9wgpu_sort22keys_buffer_size_bytes
FN:872,_RNvXs0_NtNtCsjAfDNjLymyL_16wgpu_3dgs_viewer12radix_sorter9wgpu_sortNtB5_11SortBuffersNtB5_16SortBuffersTrait10bind_group
FN:876,_RNvXs0_NtNtCsjAfDNjLymyL_16wgpu_3dgs_viewer12radix_sorter9wgpu_sortNtB5_11SortBuffersNtB5_16SortBuffersTrait12state_buffer
FN:868,_RNvXs0_NtNtCsjAfDNjLymyL_16wgpu_3dgs_viewer12radix_sorter9wgpu_sortNtB5_11SortBuffersNtB5_16SortBuffersTrait3len
FN:913,_RNvXs1_NtNtCsjAfDNjLymyL_16wgpu_3dgs_viewer12radix_sorter9wgpu_sortNtB5_19InternalSortBuffersNtB5_16SortBuffersTrait10bind_group
FN:917,_RNvXs1_NtNtCsjAfDNjLymyL_16wgpu_3dgs_viewer12radix_sorter9wgpu_sortNtB5_19InternalSortBuffersNtB5_16SortBuffersTrait12state_buffer
FN:909,_RNvXs1_NtNtCsjAfDNjLymyL_16wgpu_3dgs_viewer12radix_sorter9wgpu_sortNtB5_19InternalSortBuffersNtB5_16SortBuffersTrait3len
FN:20,_RNvMNtCsjAfDNjLymyL_16wgpu_3dgs_viewer12radix_sorterINtB2_11RadixSorteruE18create_bind_groupsB4_
FN:658,_RINvMNtNtCsjAfDNjLymyL_16wgpu_3dgs_viewer12radix_sorter9wgpu_sortNtB3_9GPUSorter13sort_indirectNtB3_19InternalSortBuffersEB7_
FN:658,_RINvMNtNtCsjMvbNGsYfvH_16wgpu_3dgs_viewer12radix_sorter9wgpu_sortNtB3_9GPUSorter13sort_indirectpEB7_
FN:628,_RINvMNtNtCsjMvbNGsYfvH_16wgpu_3dgs_viewer12radix_sorter9wgpu_sortNtB3_9GPUSorter4sortpEB7_
FN:20,_RNvMNtCsjMvbNGsYfvH_16wgpu_3dgs_viewer12radix_sorterINtB2_11RadixSorterpE18create_bind_groupsB4_
FN:314,_RNvMNtNtCsjMvbNGsYfvH_16wgpu_3dgs_viewer12radix_sorter9wgpu_sortNtB2_9GPUSorter17bind_group_layout
FN:485,_RNvMNtNtCsjMvbNGsYfvH_16wgpu_3dgs_viewer12radix_sorter9wgpu_sortNtB2_9GPUSorter17general_info_data
FN:672,_RNvMNtNtCsjMvbNGsYfvH_16wgpu_3dgs_viewer12radix_sorter9wgpu_sortNtB2_9GPUSorter19create_sort_buffers
FN:571,_RNvMNtNtCsjMvbNGsYfvH_16wgpu_3dgs_viewer12radix_sorter9wgpu_sortNtB2_9GPUSorter19record_scatter_keys
FN:384,_RNvMNtNtCsjMvbNGsYfvH_16wgpu_3dgs_viewer12radix_sorter9wgpu_sortNtB2_9GPUSorter21create_keyval_buffers
FN:556,_RNvMNtNtCsjMvbNGsYfvH_16wgpu_3dgs_viewer12radix_sorter9wgpu_sortNtB2_9GPUSorter23record_prefix_histogram
FN:459,_RNvMNtNtCsjMvbNGsYfvH_16wgpu_3dgs_viewer12radix_sorter9wgpu_sortNtB2_9GPUSorter26create_internal_mem_buffer
FN:494,_RNvMNtNtCsjMvbNGsYfvH_16wgpu_3dgs_viewer12radix_sorter9wgpu_sortNtB2_9GPUSorter26record_calculate_histogram
FN:735,_RNvMNtNtCsjMvbNGsYfvH_16wgpu_3dgs_viewer12radix_sorter9wgpu_sortNtB2_9GPUSorter28create_internal_sort_buffers
FN:598,_RNvMNtNtCsjMvbNGsYfvH_16wgpu_3dgs_viewer12radix_sorter9wgpu_sortNtB2_9GPUSorter28record_scatter_keys_indirect
FN:429,_RNvMNtNtCsjMvbNGsYfvH_16wgpu_3dgs_viewer12radix_sorter9wgpu_sortNtB2_9GPUSorter30create_internal_keyval_buffers
FN:526,_RNvMNtNtCsjMvbNGsYfvH_16wgpu_3dgs_viewer12radix_sorter9wgpu_sortNtB2_9GPUSorter35record_calculate_histogram_indirect
FN:199,_RNvMNtNtCsjMvbNGsYfvH_16wgpu_3dgs_viewer12radix_sorter9wgpu_sortNtB2_9GPUSorter3new
FN:71,_RNvMs0_NtCsjMvbNGsYfvH_16wgpu_3dgs_viewer12radix_sorterINtB5_11RadixSorteruE23new_without_bind_groups
FN:87,_RNvMs0_NtCsjMvbNGsYfvH_16wgpu_3dgs_viewer12radix_sorterINtB5_11RadixSorteruE4sort
FN:36,_RNvMs_NtCsjMvbNGsYfvH_16wgpu_3dgs_viewer12radix_sorterNtB4_11RadixSorter3new
FN:56,_RNvMs_NtCsjMvbNGsYfvH_16wgpu_3dgs_viewer12radix_sorterNtB4_11RadixSorter4sort
FN:857,_RNvMs_NtNtCsjMvbNGsYfvH_16wgpu_3dgs_viewer12radix_sorter9wgpu_sortNtB4_11SortBuffers4keys
FN:862,_RNvMs_NtNtCsjMvbNGsYfvH_16wgpu_3dgs_viewer12radix_sorter9wgpu_sortNtB4_11SortBuffers6values
FN:927,_RNvNtNtCsjMvbNGsYfvH_16wgpu_3dgs_viewer12radix_sorter9wgpu_sort15histo_blocks_ru
FN:932,_RNvNtNtCsjMvbNGsYfvH_16wgpu_3dgs_viewer12radix_sorter9wgpu_sort16keys_buffer_size
FN:922,_RNvNtNtCsjMvbNGsYfvH_16wgpu_3dgs_viewer12radix_sorter9wgpu_sort17scatter_blocks_ru
FN:937,_RNvNtNtCsjMvbNGsYfvH_16wgpu_3dgs_viewer12radix_sorter9wgpu_sort22keys_buffer_size_bytes
FN:872,_RNvXs0_NtNtCsjMvbNGsYfvH_16wgpu_3dgs_viewer12radix_sorter9wgpu_sortNtB5_11SortBuffersNtB5_16SortBuffersTrait10bind_group
FN:876,_RNvXs0_NtNtCsjMvbNGsYfvH_16wgpu_3dgs_viewer12radix_sorter9wgpu_sortNtB5_11SortBuffersNtB5_16SortBuffersTrait12state_buffer
FN:868,_RNvXs0_NtNtCsjMvbNGsYfvH_16wgpu_3dgs_viewer12radix_sorter9wgpu_sortNtB5_11SortBuffersNtB5_16SortBuffersTrait3len
FN:913,_RNvXs1_NtNtCsjMvbNGsYfvH_16wgpu_3dgs_viewer12radix_sorter9wgpu_sortNtB5_19InternalSortBuffersNtB5_16SortBuffersTrait10bind_group
FN:917,_RNvXs1_NtNtCsjMvbNGsYfvH_16wgpu_3dgs_viewer12radix_sorter9wgpu_sortNtB5_19InternalSortBuffersNtB5_16SortBuffersTrait12state_buffer
FN:909,_RNvXs1_NtNtCsjMvbNGsYfvH_16wgpu_3dgs_viewer12radix_sorter9wgpu_sortNtB5_19InternalSortBuffersNtB5_16SortBuffersTrait3len
FN:812,_RNvYpNtNtNtCsjMvbNGsYfvH_16wgpu_3dgs_viewer12radix_sorter9wgpu_sort16SortBuffersTrait15keys_valid_sizeB9_
FNDA:11,_RNvMs0_NtCsjAfDNjLymyL_16wgpu_3dgs_viewer12radix_sorterINtB5_11RadixSorteruE23new_without_bind_groups
FNDA:0,_RNvMs0_NtCsjAfDNjLymyL_16wgpu_3dgs_viewer12radix_sorterINtB5_11RadixSorteruE4sort
FNDA:11,_RNvMs_NtCsjAfDNjLymyL_16wgpu_3dgs_viewer12radix_sorterNtB4_11RadixSorter3new
FNDA:155,_RNvMs_NtCsjAfDNjLymyL_16wgpu_3dgs_viewer12radix_sorterNtB4_11RadixSorter4sort
FNDA:22,_RNvMNtNtCsjAfDNjLymyL_16wgpu_3dgs_viewer12radix_sorter9wgpu_sortNtB2_9GPUSorter17bind_group_layout
FNDA:11,_RNvMNtNtCsjAfDNjLymyL_16wgpu_3dgs_viewer12radix_sorter9wgpu_sortNtB2_9GPUSorter17general_info_data
FNDA:155,_RNvMNtNtCsjAfDNjLymyL_16wgpu_3dgs_viewer12radix_sorter9wgpu_sortNtB2_9GPUSorter23record_prefix_histogram
FNDA:11,_RNvMNtNtCsjAfDNjLymyL_16wgpu_3dgs_viewer12radix_sorter9wgpu_sortNtB2_9GPUSorter26create_internal_mem_buffer
FNDA:11,_RNvMNtNtCsjAfDNjLymyL_16wgpu_3dgs_viewer12radix_sorter9wgpu_sortNtB2_9GPUSorter28create_internal_sort_buffers
FNDA:155,_RNvMNtNtCsjAfDNjLymyL_16wgpu_3dgs_viewer12radix_sorter9wgpu_sortNtB2_9GPUSorter28record_scatter_keys_indirect
FNDA:11,_RNvMNtNtCsjAfDNjLymyL_16wgpu_3dgs_viewer12radix_sorter9wgpu_sortNtB2_9GPUSorter30create_internal_keyval_buffers
FNDA:155,_RNvMNtNtCsjAfDNjLymyL_16wgpu_3dgs_viewer12radix_sorter9wgpu_sortNtB2_9GPUSorter35record_calculate_histogram_indirect
FNDA:11,_RNvMNtNtCsjAfDNjLymyL_16wgpu_3dgs_viewer12radix_sorter9wgpu_sortNtB2_9GPUSorter3new
FNDA:33,_RNvNtNtCsjAfDNjLymyL_16wgpu_3dgs_viewer12radix_sorter9wgpu_sort15histo_blocks_ru
FNDA:33,_RNvNtNtCsjAfDNjLymyL_16wgpu_3dgs_viewer12radix_sorter9wgpu_sort16keys_buffer_size
FNDA:44,_RNvNtNtCsjAfDNjLymyL_16wgpu_3dgs_viewer12radix_sorter9wgpu_sort17scatter_blocks_ru
FNDA:11,_RNvNtNtCsjAfDNjLymyL_16wgpu_3dgs_viewer12radix_sorter9wgpu_sort22keys_buffer_size_bytes
FNDA:0,_RNvXs0_NtNtCsjAfDNjLymyL_16wgpu_3dgs_viewer12radix_sorter9wgpu_sortNtB5_11SortBuffersNtB5_16SortBuffersTrait10bind_group
FNDA:0,_RNvXs0_NtNtCsjAfDNjLymyL_16wgpu_3dgs_viewer12radix_sorter9wgpu_sortNtB5_11SortBuffersNtB5_16SortBuffersTrait12state_buffer
FNDA:0,_RNvXs0_NtNtCsjAfDNjLymyL_16wgpu_3dgs_viewer12radix_sorter9wgpu_sortNtB5_11SortBuffersNtB5_16SortBuffersTrait3len
FNDA:155,_RNvXs1_NtNtCsjAfDNjLymyL_16wgpu_3dgs_viewer12radix_sorter9wgpu_sortNtB5_19InternalSortBuffersNtB5_16SortBuffersTrait10bind_group
FNDA:0,_RNvXs1_NtNtCsjAfDNjLymyL_16wgpu_3dgs_viewer12radix_sorter9wgpu_sortNtB5_19InternalSortBuffersNtB5_16SortBuffersTrait12state_buffer
FNDA:0,_RNvXs1_NtNtCsjAfDNjLymyL_16wgpu_3dgs_viewer12radix_sorter9wgpu_sortNtB5_19InternalSortBuffersNtB5_16SortBuffersTrait3len
FNDA:11,_RNvMNtCsjAfDNjLymyL_16wgpu_3dgs_viewer12radix_sorterINtB2_11RadixSorteruE18create_bind_groupsB4_
FNDA:155,_RINvMNtNtCsjAfDNjLymyL_16wgpu_3dgs_viewer12radix_sorter9wgpu_sortNtB3_9GPUSorter13sort_indirectNtB3_19InternalSortBuffersEB7_
FNDA:0,_RINvMNtNtCsjMvbNGsYfvH_16wgpu_3dgs_viewer12radix_sorter9wgpu_sortNtB3_9GPUSorter13sort_indirectpEB7_
FNDA:0,_RINvMNtNtCsjMvbNGsYfvH_16wgpu_3dgs_viewer12radix_sorter9wgpu_sortNtB3_9GPUSorter4sortpEB7_
FNDA:0,_RNvMNtCsjMvbNGsYfvH_16wgpu_3dgs_viewer12radix_sorterINtB2_11RadixSorterpE18create_bind_groupsB4_
FNDA:0,_RNvMNtNtCsjMvbNGsYfvH_16wgpu_3dgs_viewer12radix_sorter9wgpu_sortNtB2_9GPUSorter17bind_group_layout
FNDA:0,_RNvMNtNtCsjMvbNGsYfvH_16wgpu_3dgs_viewer12radix_sorter9wgpu_sortNtB2_9GPUSorter17general_info_data
FNDA:0,_RNvMNtNtCsjMvbNGsYfvH_16wgpu_3dgs_viewer12radix_sorter9wgpu_sortNtB2_9GPUSorter19create_sort_buffers
FNDA:0,_RNvMNtNtCsjMvbNGsYfvH_16wgpu_3dgs_viewer12radix_sorter9wgpu_sortNtB2_9GPUSorter19record_scatter_keys
FNDA:0,_RNvMNtNtCsjMvbNGsYfvH_16wgpu_3dgs_viewer12radix_sorter9wgpu_sortNtB2_9GPUSorter21create_keyval_buffers
FNDA:0,_RNvMNtNtCsjMvbNGsYfvH_16wgpu_3dgs_viewer12radix_sorter9wgpu_sortNtB2_9GPUSorter23record_prefix_histogram
FNDA:0,_RNvMNtNtCsjMvbNGsYfvH_16wgpu_3dgs_viewer12radix_sorter9wgpu_sortNtB2_9GPUSorter26create_internal_mem_buffer
FNDA:0,_RNvMNtNtCsjMvbNGsYfvH_16wgpu_3dgs_viewer12radix_sorter9wgpu_sortNtB2_9GPUSorter26record_calculate_histogram
FNDA:0,_RNvMNtNtCsjMvbNGsYfvH_16wgpu_3dgs_viewer12radix_sorter9wgpu_sortNtB2_9GPUSorter28create_internal_sort_buffers
FNDA:0,_RNvMNtNtCsjMvbNGsYfvH_16wgpu_3dgs_viewer12radix_sorter9wgpu_sortNtB2_9GPUSorter28record_scatter_keys_indirect
FNDA:0,_RNvMNtNtCsjMvbNGsYfvH_16wgpu_3dgs_viewer12radix_sorter9wgpu_sortNtB2_9GPUSorter30create_internal_keyval_buffers
FNDA:0,_RNvMNtNtCsjMvbNGsYfvH_16wgpu_3dgs_viewer12radix_sorter9wgpu_sortNtB2_9GPUSorter35record_calculate_histogram_indirect
FNDA:0,_RNvMNtNtCsjMvbNGsYfvH_16wgpu_3dgs_viewer12radix_sorter9wgpu_sortNtB2_9GPUSorter3new
FNDA:0,_RNvMs0_NtCsjMvbNGsYfvH_16wgpu_3dgs_viewer12radix_sorterINtB5_11RadixSorteruE23new_without_bind_groups
FNDA:0,_RNvMs0_NtCsjMvbNGsYfvH_16wgpu_3dgs_viewer12radix_sorterINtB5_11RadixSorteruE4sort
FNDA:0,_RNvMs_NtCsjMvbNGsYfvH_16wgpu_3dgs_viewer12radix_sorterNtB4_11RadixSorter3new
FNDA:0,_RNvMs_NtCsjMvbNGsYfvH_16wgpu_3dgs_viewer12radix_sorterNtB4_11RadixSorter4sort
FNDA:0,_RNvMs_NtNtCsjMvbNGsYfvH_16wgpu_3dgs_viewer12radix_sorter9wgpu_sortNtB4_11SortBuffers4keys
FNDA:0,_RNvMs_NtNtCsjMvbNGsYfvH_16wgpu_3dgs_viewer12radix_sorter9wgpu_sortNtB4_11SortBuffers6values
FNDA:0,_RNvNtNtCsjMvbNGsYfvH_16wgpu_3dgs_viewer12radix_sorter9wgpu_sort15histo_blocks_ru
FNDA:0,_RNvNtNtCsjMvbNGsYfvH_16wgpu_3dgs_viewer12radix_sorter9wgpu_sort16keys_buffer_size
FNDA:0,_RNvNtNtCsjMvbNGsYfvH_16wgpu_3dgs_viewer12radix_sorter9wgpu_sort17scatter_blocks_ru
FNDA:0,_RNvNtNtCsjMvbNGsYfvH_16wgpu_3dgs_viewer12radix_sorter9wgpu_sort22keys_buffer_size_bytes
FNDA:0,_RNvXs0_NtNtCsjMvbNGsYfvH_16wgpu_3dgs_viewer12radix_sorter9wgpu_sortNtB5_11SortBuffersNtB5_16SortBuffersTrait10bind_group
FNDA:0,_RNvXs0_NtNtCsjMvbNGsYfvH_16wgpu_3dgs_viewer12radix_sorter9wgpu_sortNtB5_11SortBuffersNtB5_16SortBuffersTrait12state_buffer
FNDA:0,_RNvXs0_NtNtCsjMvbNGsYfvH_16wgpu_3dgs_viewer12radix_sorter9wgpu_sortNtB5_11SortBuffersNtB5_16SortBuffersTrait3len
FNDA:0,_RNvXs1_NtNtCsjMvbNGsYfvH_16wgpu_3dgs_viewer12radix_sorter9wgpu_sortNtB5_19InternalSortBuffersNtB5_16SortBuffersTrait10bind_group
FNDA:0,_RNvXs1_NtNtCsjMvbNGsYfvH_16wgpu_3dgs_viewer12radix_sorter9wgpu_sortNtB5_19InternalSortBuffersNtB5_16SortBuffersTrait12state_buffer
FNDA:0,_RNvXs1_NtNtCsjMvbNGsYfvH_16wgpu_3dgs_viewer12radix_sorter9wgpu_sortNtB5_19InternalSortBuffersNtB5_16SortBuffersTrait3len
FNDA:0,_RNvYpNtNtNtCsjMvbNGsYfvH_16wgpu_3dgs_viewer12radix_sorter9wgpu_sort16SortBuffersTrait15keys_valid_sizeB9_
FNF:33
FNH:19
DA:20,11
DA:21,11
DA:22,11
DA:23,11
DA:24,11
DA:25,11
DA:26,11
DA:27,11
DA:28,11
DA:29,11
DA:31,11
DA:36,11
DA:37,11
DA:38,11
DA:39,11
DA:40,11
DA:41,11
DA:43,11
DA:44,11
DA:45,11
DA:47,11
DA:49,11
DA:50,11
DA:51,11
DA:52,11
DA:53,11
DA:56,155
DA:57,155
DA:58,155
DA:59,155
DA:60,155
DA:61,155
DA:62,155
DA:63,155
DA:64,155
DA:66,155
DA:71,11
DA:72,11
DA:73,11
DA:75,11
DA:77,11
DA:78,11
DA:79,11
DA:80,11
DA:81,11
DA:87,0
DA:88,0
DA:89,0
DA:90,0
DA:91,0
DA:92,0
DA:93,0
DA:94,0
DA:95,0
DA:199,11
DA:201,11
DA:202,11
DA:203,11
DA:204,11
DA:205,11
DA:206,11
DA:207,11
DA:209,11
DA:210,11
DA:211,11
DA:212,11
DA:214,11
DA:216,11
DA:217,11
DA:218,11
DA:219,11
DA:220,11
DA:221,11
DA:223,11
DA:227,11
DA:228,11
DA:229,11
DA:230,11
DA:231,11
DA:232,11
DA:233,11
DA:234,11
DA:235,11
DA:236,11
DA:237,11
DA:238,11
DA:252,11
DA:253,11
DA:254,11
DA:255,11
DA:256,11
DA:257,11
DA:258,11
DA:260,11
DA:261,11
DA:262,11
DA:263,11
DA:264,11
DA:265,11
DA:266,11
DA:267,11
DA:268,11
DA:269,11
DA:270,11
DA:271,11
DA:272,11
DA:273,11
DA:274,11
DA:275,11
DA:276,11
DA:277,11
DA:278,11
DA:279,11
DA:280,11
DA:281,11
DA:282,11
DA:283,11
DA:284,11
DA:285,11
DA:286,11
DA:287,11
DA:288,11
DA:289,11
DA:290,11
DA:291,11
DA:292,11
DA:293,11
DA:294,11
DA:295,11
DA:296,11
DA:297,11
DA:298,11
DA:299,11
DA:300,11
DA:301,11
DA:302,11
DA:303,11
DA:305,11
DA:306,11
DA:307,11
DA:308,11
DA:309,11
DA:310,11
DA:311,11
DA:312,11
DA:314,22
DA:315,22
DA:316,22
DA:317,22
DA:318,22
DA:319,22
DA:320,22
DA:321,22
DA:322,22
DA:323,22
DA:324,22
DA:325,22
DA:326,22
DA:327,22
DA:328,22
DA:329,22
DA:330,22
DA:331,22
DA:332,22
DA:333,22
DA:334,22
DA:335,22
DA:336,22
DA:337,22
DA:338,22
DA:339,22
DA:340,22
DA:341,22
DA:342,22
DA:343,22
DA:344,22
DA:345,22
DA:346,22
DA:347,22
DA:348,22
DA:349,22
DA:350,22
DA:351,22
DA:352,22
DA:353,22
DA:354,22
DA:355,22
DA:356,22
DA:357,22
DA:358,22
DA:359,22
DA:360,22
DA:361,22
DA:362,22
DA:363,22
DA:364,22
DA:365,22
DA:366,22
DA:367,22
DA:368,22
DA:369,22
DA:370,22
DA:371,22
DA:372,22
DA:373,22
DA:374,22
DA:375,22
DA:376,22
DA:377,22
DA:378,22
DA:379,22
DA:380,22
DA:381,22
DA:382,22
DA:384,0
DA:385,0
DA:386,0
DA:387,0
DA:389,0
DA:392,0
DA:393,0
DA:394,0
DA:395,0
DA:396,0
DA:397,0
DA:398,0
DA:399,0
DA:402,0
DA:403,0
DA:404,0
DA:405,0
DA:406,0
DA:407,0
DA:409,0
DA:410,0
DA:411,0
DA:412,0
DA:413,0
DA:414,0
DA:415,0
DA:416,0
DA:417,0
DA:419,0
DA:420,0
DA:421,0
DA:422,0
DA:423,0
DA:424,0
DA:425,0
DA:426,0
DA:429,11
DA:430,11
DA:431,11
DA:432,11
DA:434,11
DA:437,11
DA:438,11
DA:439,11
DA:440,11
DA:441,11
DA:442,11
DA:444,11
DA:447,11
DA:448,11
DA:449,11
DA:450,11
DA:451,11
DA:452,11
DA:453,11
DA:454,11
DA:459,11
DA:471,11
DA:473,11
DA:475,11
DA:477,11
DA:478,11
DA:479,11
DA:480,11
DA:481,11
DA:482,11
DA:483,11
DA:485,11
DA:486,11
DA:487,11
DA:488,11
DA:489,11
DA:490,11
DA:491,11
DA:492,11
DA:494,0
DA:495,0
DA:496,0
DA:497,0
DA:498,0
DA:499,0
DA:501,0
DA:503,0
DA:504,0
DA:505,0
DA:506,0
DA:507,0
DA:508,0
DA:509,0
DA:510,0
DA:511,0
DA:512,0
DA:514,0
DA:515,0
DA:516,0
DA:517,0
DA:518,0
DA:519,0
DA:520,0
DA:521,0
DA:522,0
DA:523,0
DA:524,0
DA:526,155
DA:527,155
DA:528,155
DA:529,155
DA:530,155
DA:531,155
DA:532,155
DA:533,155
DA:534,155
DA:535,155
DA:536,155
DA:537,155
DA:538,155
DA:539,155
DA:540,155
DA:541,155
DA:543,155
DA:544,155
DA:545,155
DA:546,155
DA:547,155
DA:548,155
DA:549,155
DA:550,155
DA:551,155
DA:552,155
DA:553,155
DA:556,155
DA:557,155
DA:558,155
DA:559,155
DA:560,155
DA:561,155
DA:562,155
DA:563,155
DA:564,155
DA:566,155
DA:567,155
DA:568,155
DA:569,155
DA:571,0
DA:572,0
DA:573,0
DA:574,0
DA:575,0
DA:576,0
DA:577,0
DA:579,0
DA:580,0
DA:581,0
DA:582,0
DA:584,0
DA:585,0
DA:586,0
DA:588,0
DA:589,0
DA:591,0
DA:592,0
DA:594,0
DA:595,0
DA:596,0
DA:598,155
DA:599,155
DA:600,155
DA:601,155
DA:602,155
DA:603,155
DA:604,155
DA:605,155
DA:606,155
DA:607,155
DA:609,155
DA:610,155
DA:611,155
DA:613,155
DA:614,155
DA:616,155
DA:617,155
DA:619,155
DA:620,155
DA:621,155
DA:628,0
DA:629,0
DA:630,0
DA:631,0
DA:632,0
DA:633,0
DA:634,0
DA:635,0
DA:636,0
DA:639,0
DA:641,0
DA:642,0
DA:643,0
DA:644,0
DA:658,155
DA:659,155
DA:660,155
DA:661,155
DA:662,155
DA:663,155
DA:664,155
DA:666,155
DA:667,155
DA:668,155
DA:669,155
DA:672,0
DA:673,0
DA:674,0
DA:675,0
DA:676,0
DA:677,0
DA:679,0
DA:680,0
DA:681,0
DA:683,0
DA:684,0
DA:685,0
DA:686,0
DA:687,0
DA:688,0
DA:689,0
DA:690,0
DA:691,0
DA:692,0
DA:693,0
DA:694,0
DA:695,0
DA:696,0
DA:697,0
DA:698,0
DA:699,0
DA:700,0
DA:701,0
DA:702,0
DA:703,0
DA:704,0
DA:705,0
DA:706,0
DA:707,0
DA:708,0
DA:709,0
DA:710,0
DA:711,0
DA:712,0
DA:713,0
DA:714,0
DA:715,0
DA:716,0
DA:717,0
DA:718,0
DA:720,0
DA:721,0
DA:722,0
DA:723,0
DA:724,0
DA:725,0
DA:726,0
DA:727,0
DA:728,0
DA:729,0
DA:730,0
DA:735,11
DA:736,11
DA:737,11
DA:738,11
DA:739,11
DA:740,11
DA:741,11
DA:743,11
DA:744,11
DA:746,11
DA:747,11
DA:748,11
DA:749,11
DA:750,11
DA:751,11
DA:752,11
DA:753,11
DA:754,11
DA:755,11
DA:756,11
DA:757,11
DA:758,11
DA:759,11
DA:760,11
DA:761,11
DA:762,11
DA:763,11
DA:764,11
DA:765,11
DA:766,11
DA:767,11
DA:768,11
DA:769,11
DA:770,11
DA:771,11
DA:772,11
DA:773,11
DA:774,11
DA:775,11
DA:776,11
DA:777,11
DA:778,11
DA:779,11
DA:780,11
DA:781,11
DA:783,11
DA:784,11
DA:785,11
DA:786,11
DA:787,11
DA:788,11
DA:789,11
DA:790,11
DA:791,11
DA:812,0
DA:813,0
DA:814,0
DA:857,0
DA:858,0
DA:859,0
DA:862,0
DA:863,0
DA:864,0
DA:868,0
DA:869,0
DA:870,0
DA:872,0
DA:873,0
DA:874,0
DA:876,0
DA:877,0
DA:878,0
DA:909,0
DA:910,0
DA:911,0
DA:913,155
DA:914,155
DA:915,155
DA:917,0
DA:918,0
DA:919,0
DA:922,44
DA:923,44
DA:924,44
DA:927,33
DA:928,33
DA:929,33
DA:932,33
DA:933,33
DA:934,33
DA:937,11
DA:938,11
DA:939,11
BRF:0
BRH:0
LF:572
LH:384
end_of_record
SF:C:\Users\s2010\Me\Codes\Rust\wgpu-3dgs-viewer\src\renderer.rs
FN:24,_RNvMNtCsjAfDNjLymyL_16wgpu_3dgs_viewer8rendererINtB2_8RendererNtNtNtCs7uIZbJPR652_14wgpu_3dgs_core6buffer8gaussian41GaussianPodWithShSingleCov3dSingleConfigsuE17create_bind_groupCskHWTcKnagmk_3mod
FN:235,_RNvMs0_NtCsjAfDNjLymyL_16wgpu_3dgs_viewer8rendererINtB5_8RendererNtNtNtCs7uIZbJPR652_14wgpu_3dgs_core6buffer8gaussian41GaussianPodWithShSingleCov3dSingleConfigsuE22new_without_bind_groupCskHWTcKnagmk_3mod
FN:175,_RNvMs_NtCsjAfDNjLymyL_16wgpu_3dgs_viewer8rendererINtB4_8RendererNtNtNtCs7uIZbJPR652_14wgpu_3dgs_core6buffer8gaussian41GaussianPodWithShSingleCov3dSingleConfigsE16render_with_passCskHWTcKnagmk_3mod
FN:187,_RNvMs_NtCsjAfDNjLymyL_16wgpu_3dgs_viewer8rendererINtB4_8RendererNtNtNtCs7uIZbJPR652_14wgpu_3dgs_core6buffer8gaussian41GaussianPodWithShSingleCov3dSingleConfigsE24create_bind_group_staticCskHWTcKnagmk_3mod
FN:111,_RNvMs_NtCsjAfDNjLymyL_16wgpu_3dgs_viewer8rendererINtB4_8RendererNtNtNtCs7uIZbJPR652_14wgpu_3dgs_core6buffer8gaussian41GaussianPodWithShSingleCov3dSingleConfigsE3newCskHWTcKnagmk_3mod
FN:149,_RNvMs_NtCsjAfDNjLymyL_16wgpu_3dgs_viewer8rendererINtB4_8RendererNtNtNtCs7uIZbJPR652_14wgpu_3dgs_core6buffer8gaussian41GaussianPodWithShSingleCov3dSingleConfigsE6renderCskHWTcKnagmk_3mod
FN:24,_RNvMNtCsjMvbNGsYfvH_16wgpu_3dgs_viewer8rendererINtB2_8RendererppE17create_bind_groupB4_
FN:336,_RNvMs0_NtCsjMvbNGsYfvH_16wgpu_3dgs_viewer8rendererINtB5_8RendererpuE16render_with_passB7_
FN:235,_RNvMs0_NtCsjMvbNGsYfvH_16wgpu_3dgs_viewer8rendererINtB5_8RendererpuE22new_without_bind_groupB7_
FN:309,_RNvMs0_NtCsjMvbNGsYfvH_16wgpu_3dgs_viewer8rendererINtB5_8RendererpuE6renderB7_
FN:175,_RNvMs_NtCsjMvbNGsYfvH_16wgpu_3dgs_viewer8rendererINtB4_8RendererpE16render_with_passB6_
FN:187,_RNvMs_NtCsjMvbNGsYfvH_16wgpu_3dgs_viewer8rendererINtB4_8RendererpE24create_bind_group_staticB6_
FN:111,_RNvMs_NtCsjMvbNGsYfvH_16wgpu_3dgs_viewer8rendererINtB4_8RendererpE3newB6_
FN:149,_RNvMs_NtCsjMvbNGsYfvH_16wgpu_3dgs_viewer8rendererINtB4_8RendererpE6renderB6_
FN:24,_RNvMNtCsjAfDNjLymyL_16wgpu_3dgs_viewer8rendererINtB2_8RendererNtNtNtCs7uIZbJPR652_14wgpu_3dgs_core6buffer8gaussian41GaussianPodWithShSingleCov3dSingleConfigsuE17create_bind_groupCsgCUhY3MwoBc_11multi_model
FN:336,_RNvMs0_NtCsjAfDNjLymyL_16wgpu_3dgs_viewer8rendererINtB5_8RendererNtNtNtCs7uIZbJPR652_14wgpu_3dgs_core6buffer8gaussian41GaussianPodWithShSingleCov3dSingleConfigsuE16render_with_passCsgCUhY3MwoBc_11multi_model
FN:235,_RNvMs0_NtCsjAfDNjLymyL_16wgpu_3dgs_viewer8rendererINtB5_8RendererNtNtNtCs7uIZbJPR652_14wgpu_3dgs_core6buffer8gaussian41GaussianPodWithShSingleCov3dSingleConfigsuE22new_without_bind_groupCsgCUhY3MwoBc_11multi_model
FN:187,_RNvMs_NtCsjAfDNjLymyL_16wgpu_3dgs_viewer8rendererINtB4_8RendererNtNtNtCs7uIZbJPR652_14wgpu_3dgs_core6buffer8gaussian41GaussianPodWithShSingleCov3dSingleConfigsE24create_bind_group_staticCsgCUhY3MwoBc_11multi_model
FN:24,_RNvMNtCsjAfDNjLymyL_16wgpu_3dgs_viewer8rendererINtB2_8RendererNtNtNtCs7uIZbJPR652_14wgpu_3dgs_core6buffer8gaussian41GaussianPodWithShSingleCov3dSingleConfigsuE17create_bind_groupCsaEBMRA9cDqq_9selection
FN:235,_RNvMs0_NtCsjAfDNjLymyL_16wgpu_3dgs_viewer8rendererINtB5_8RendererNtNtNtCs7uIZbJPR652_14wgpu_3dgs_core6buffer8gaussian41GaussianPodWithShSingleCov3dSingleConfigsuE22new_without_bind_groupCsaEBMRA9cDqq_9selection
FN:175,_RNvMs_NtCsjAfDNjLymyL_16wgpu_3dgs_viewer8rendererINtB4_8RendererNtNtNtCs7uIZbJPR652_14wgpu_3dgs_core6buffer8gaussian41GaussianPodWithShSingleCov3dSingleConfigsE16render_with_passCsaEBMRA9cDqq_9selection
FN:187,_RNvMs_NtCsjAfDNjLymyL_16wgpu_3dgs_viewer8rendererINtB4_8RendererNtNtNtCs7uIZbJPR652_14wgpu_3dgs_core6buffer8gaussian41GaussianPodWithShSingleCov3dSingleConfigsE24create_bind_group_staticCsaEBMRA9cDqq_9selection
FN:111,_RNvMs_NtCsjAfDNjLymyL_16wgpu_3dgs_viewer8rendererINtB4_8RendererNtNtNtCs7uIZbJPR652_14wgpu_3dgs_core6buffer8gaussian41GaussianPodWithShSingleCov3dSingleConfigsE3newCsaEBMRA9cDqq_9selection
FN:149,_RNvMs_NtCsjAfDNjLymyL_16wgpu_3dgs_viewer8rendererINtB4_8RendererNtNtNtCs7uIZbJPR652_14wgpu_3dgs_core6buffer8gaussian41GaussianPodWithShSingleCov3dSingleConfigsE6renderCsaEBMRA9cDqq_9selection
FN:24,_RNvMNtCsjAfDNjLymyL_16wgpu_3dgs_viewer8rendererINtB2_8RendererNtNtNtCs7uIZbJPR652_14wgpu_3dgs_core6buffer8gaussian41GaussianPodWithShSingleCov3dSingleConfigsuE17create_bind_groupCsiA5QZE4OIiA_6simple
FN:235,_RNvMs0_NtCsjAfDNjLymyL_16wgpu_3dgs_viewer8rendererINtB5_8RendererNtNtNtCs7uIZbJPR652_14wgpu_3dgs_core6buffer8gaussian41GaussianPodWithShSingleCov3dSingleConfigsuE22new_without_bind_groupCsiA5QZE4OIiA_6simple
FN:175,_RNvMs_NtCsjAfDNjLymyL_16wgpu_3dgs_viewer8rendererINtB4_8RendererNtNtNtCs7uIZbJPR652_14wgpu_3dgs_core6buffer8gaussian41GaussianPodWithShSingleCov3dSingleConfigsE16render_with_passCsiA5QZE4OIiA_6simple
FN:187,_RNvMs_NtCsjAfDNjLymyL_16wgpu_3dgs_viewer8rendererINtB4_8RendererNtNtNtCs7uIZbJPR652_14wgpu_3dgs_core6buffer8gaussian41GaussianPodWithShSingleCov3dSingleConfigsE24create_bind_group_staticCsiA5QZE4OIiA_6simple
FN:111,_RNvMs_NtCsjAfDNjLymyL_16wgpu_3dgs_viewer8rendererINtB4_8RendererNtNtNtCs7uIZbJPR652_14wgpu_3dgs_core6buffer8gaussian41GaussianPodWithShSingleCov3dSingleConfigsE3newCsiA5QZE4OIiA_6simple
FN:149,_RNvMs_NtCsjAfDNjLymyL_16wgpu_3dgs_viewer8rendererINtB4_8RendererNtNtNtCs7uIZbJPR652_14wgpu_3dgs_core6buffer8gaussian41GaussianPodWithShSingleCov3dSingleConfigsE6renderCsiA5QZE4OIiA_6simple
FNDA:10,_RNvMNtCsjAfDNjLymyL_16wgpu_3dgs_viewer8rendererINtB2_8RendererNtNtNtCs7uIZbJPR652_14wgpu_3dgs_core6buffer8gaussian41GaussianPodWithShSingleCov3dSingleConfigsuE17create_bind_groupCskHWTcKnagmk_3mod
FNDA:10,_RNvMs0_NtCsjAfDNjLymyL_16wgpu_3dgs_viewer8rendererINtB5_8RendererNtNtNtCs7uIZbJPR652_14wgpu_3dgs_core6buffer8gaussian41GaussianPodWithShSingleCov3dSingleConfigsuE22new_without_bind_groupCskHWTcKnagmk_3mod
FNDA:10,_RNvMs_NtCsjAfDNjLymyL_16wgpu_3dgs_viewer8rendererINtB4_8RendererNtNtNtCs7uIZbJPR652_14wgpu_3dgs_core6buffer8gaussian41GaussianPodWithShSingleCov3dSingleConfigsE16render_with_passCskHWTcKnagmk_3mod
FNDA:10,_RNvMs_NtCsjAfDNjLymyL_16wgpu_3dgs_viewer8rendererINtB4_8RendererNtNtNtCs7uIZbJPR652_14wgpu_3dgs_core6buffer8gaussian41GaussianPodWithShSingleCov3dSingleConfigsE24create_bind_group_staticCskHWTcKnagmk_3mod
FNDA:10,_RNvMs_NtCsjAfDNjLymyL_16wgpu_3dgs_viewer8rendererINtB4_8RendererNtNtNtCs7uIZbJPR652_14wgpu_3dgs_core6buffer8gaussian41GaussianPodWithShSingleCov3dSingleConfigsE3newCskHWTcKnagmk_3mod
FNDA:10,_RNvMs_NtCsjAfDNjLymyL_16wgpu_3dgs_viewer8rendererINtB4_8RendererNtNtNtCs7uIZbJPR652_14wgpu_3dgs_core6buffer8gaussian41GaussianPodWithShSingleCov3dSingleConfigsE6renderCskHWTcKnagmk_3mod
FNDA:0,_RNvMNtCsjMvbNGsYfvH_16wgpu_3dgs_viewer8rendererINtB2_8RendererppE17create_bind_groupB4_
FNDA:0,_RNvMs0_NtCsjMvbNGsYfvH_16wgpu_3dgs_viewer8rendererINtB5_8RendererpuE16render_with_passB7_
FNDA:0,_RNvMs0_NtCsjMvbNGsYfvH_16wgpu_3dgs_viewer8rendererINtB5_8RendererpuE22new_without_bind_groupB7_
FNDA:0,_RNvMs0_NtCsjMvbNGsYfvH_16wgpu_3dgs_viewer8rendererINtB5_8RendererpuE6renderB7_
FNDA:0,_RNvMs_NtCsjMvbNGsYfvH_16wgpu_3dgs_viewer8rendererINtB4_8RendererpE16render_with_passB6_
FNDA:0,_RNvMs_NtCsjMvbNGsYfvH_16wgpu_3dgs_viewer8rendererINtB4_8RendererpE24create_bind_group_staticB6_
FNDA:0,_RNvMs_NtCsjMvbNGsYfvH_16wgpu_3dgs_viewer8rendererINtB4_8RendererpE3newB6_
FNDA:0,_RNvMs_NtCsjMvbNGsYfvH_16wgpu_3dgs_viewer8rendererINtB4_8RendererpE6renderB6_
FNDA:0,_RNvMNtCsjAfDNjLymyL_16wgpu_3dgs_viewer8rendererINtB2_8RendererNtNtNtCs7uIZbJPR652_14wgpu_3dgs_core6buffer8gaussian41GaussianPodWithShSingleCov3dSingleConfigsuE17create_bind_groupCsgCUhY3MwoBc_11multi_model
FNDA:0,_RNvMs0_NtCsjAfDNjLymyL_16wgpu_3dgs_viewer8rendererINtB5_8RendererNtNtNtCs7uIZbJPR652_14wgpu_3dgs_core6buffer8gaussian41GaussianPodWithShSingleCov3dSingleConfigsuE16render_with_passCsgCUhY3MwoBc_11multi_model
FNDA:0,_RNvMs0_NtCsjAfDNjLymyL_16wgpu_3dgs_viewer8rendererINtB5_8RendererNtNtNtCs7uIZbJPR652_14wgpu_3dgs_core6buffer8gaussian41GaussianPodWithShSingleCov3dSingleConfigsuE22new_without_bind_groupCsgCUhY3MwoBc_11multi_model
FNDA:0,_RNvMs_NtCsjAfDNjLymyL_16wgpu_3dgs_viewer8rendererINtB4_8RendererNtNtNtCs7uIZbJPR652_14wgpu_3dgs_core6buffer8gaussian41GaussianPodWithShSingleCov3dSingleConfigsE24create_bind_group_staticCsgCUhY3MwoBc_11multi_model
FNDA:1,_RNvMNtCsjAfDNjLymyL_16wgpu_3dgs_viewer8rendererINtB2_8RendererNtNtNtCs7uIZbJPR652_14wgpu_3dgs_core6buffer8gaussian41GaussianPodWithShSingleCov3dSingleConfigsuE17create_bind_groupCsaEBMRA9cDqq_9selection
FNDA:1,_RNvMs0_NtCsjAfDNjLymyL_16wgpu_3dgs_viewer8rendererINtB5_8RendererNtNtNtCs7uIZbJPR652_14wgpu_3dgs_core6buffer8gaussian41GaussianPodWithShSingleCov3dSingleConfigsuE22new_without_bind_groupCsaEBMRA9cDqq_9selection
FNDA:145,_RNvMs_NtCsjAfDNjLymyL_16wgpu_3dgs_viewer8rendererINtB4_8RendererNtNtNtCs7uIZbJPR652_14wgpu_3dgs_core6buffer8gaussian41GaussianPodWithShSingleCov3dSingleConfigsE16render_with_passCsaEBMRA9cDqq_9selection
FNDA:1,_RNvMs_NtCsjAfDNjLymyL_16wgpu_3dgs_viewer8rendererINtB4_8RendererNtNtNtCs7uIZbJPR652_14wgpu_3dgs_core6buffer8gaussian41GaussianPodWithShSingleCov3dSingleConfigsE24create_bind_group_staticCsaEBMRA9cDqq_9selection
FNDA:1,_RNvMs_NtCsjAfDNjLymyL_16wgpu_3dgs_viewer8rendererINtB4_8RendererNtNtNtCs7uIZbJPR652_14wgpu_3dgs_core6buffer8gaussian41GaussianPodWithShSingleCov3dSingleConfigsE3newCsaEBMRA9cDqq_9selection
FNDA:145,_RNvMs_NtCsjAfDNjLymyL_16wgpu_3dgs_viewer8rendererINtB4_8RendererNtNtNtCs7uIZbJPR652_14wgpu_3dgs_core6buffer8gaussian41GaussianPodWithShSingleCov3dSingleConfigsE6renderCsaEBMRA9cDqq_9selection
FNDA:0,_RNvMNtCsjAfDNjLymyL_16wgpu_3dgs_viewer8rendererINtB2_8RendererNtNtNtCs7uIZbJPR652_14wgpu_3dgs_core6buffer8gaussian41GaussianPodWithShSingleCov3dSingleConfigsuE17create_bind_groupCsiA5QZE4OIiA_6simple
FNDA:0,_RNvMs0_NtCsjAfDNjLymyL_16wgpu_3dgs_viewer8rendererINtB5_8RendererNtNtNtCs7uIZbJPR652_14wgpu_3dgs_core6buffer8gaussian41GaussianPodWithShSingleCov3dSingleConfigsuE22new_without_bind_groupCsiA5QZE4OIiA_6simple
FNDA:0,_RNvMs_NtCsjAfDNjLymyL_16wgpu_3dgs_viewer8rendererINtB4_8RendererNtNtNtCs7uIZbJPR652_14wgpu_3dgs_core6buffer8gaussian41GaussianPodWithShSingleCov3dSingleConfigsE16render_with_passCsiA5QZE4OIiA_6simple
FNDA:0,_RNvMs_NtCsjAfDNjLymyL_16wgpu_3dgs_viewer8rendererINtB4_8RendererNtNtNtCs7uIZbJPR652_14wgpu_3dgs_core6buffer8gaussian41GaussianPodWithShSingleCov3dSingleConfigsE24create_bind_group_staticCsiA5QZE4OIiA_6simple
FNDA:0,_RNvMs_NtCsjAfDNjLymyL_16wgpu_3dgs_viewer8rendererINtB4_8RendererNtNtNtCs7uIZbJPR652_14wgpu_3dgs_core6buffer8gaussian41GaussianPodWithShSingleCov3dSingleConfigsE3newCsiA5QZE4OIiA_6simple
FNDA:0,_RNvMs_NtCsjAfDNjLymyL_16wgpu_3dgs_viewer8rendererINtB4_8RendererNtNtNtCs7uIZbJPR652_14wgpu_3dgs_core6buffer8gaussian41GaussianPodWithShSingleCov3dSingleConfigsE6renderCsiA5QZE4OIiA_6simple
FNF:8
FNH:6
DA:24,11
DA:25,11
DA:26,11
DA:27,11
DA:28,11
DA:29,11
DA:30,11
DA:31,11
DA:32,11
DA:33,11
DA:34,11
DA:35,11
DA:36,11
DA:37,11
DA:38,11
DA:39,11
DA:40,11
DA:42,11
DA:111,11
DA:112,11
DA:113,11
DA:114,11
DA:115,11
DA:116,11
DA:117,11
DA:118,11
DA:119,11
DA:120,11
DA:121,11
DA:122,0
DA:123,0
DA:124,0
DA:125,0
DA:126,11
DA:128,11
DA:130,11
DA:131,11
DA:132,11
DA:133,11
DA:134,11
DA:135,11
DA:136,11
DA:137,11
DA:140,11
DA:141,11
DA:142,11
DA:143,11
DA:144,11
DA:145,11
DA:146,11
DA:149,155
DA:150,155
DA:151,155
DA:152,155
DA:153,155
DA:154,155
DA:155,155
DA:156,155
DA:157,155
DA:158,155
DA:159,155
DA:160,155
DA:161,155
DA:162,155
DA:163,155
DA:164,155
DA:165,155
DA:166,155
DA:167,155
DA:168,155
DA:169,155
DA:171,155
DA:172,155
DA:175,155
DA:176,155
DA:177,155
DA:178,155
DA:179,155
DA:180,155
DA:181,155
DA:182,155
DA:183,155
DA:187,11
DA:188,11
DA:189,11
DA:190,11
DA:191,11
DA:192,11
DA:193,11
DA:194,11
DA:195,11
DA:196,11
DA:197,11
DA:198,11
DA:199,11
DA:200,11
DA:201,11
DA:202,11
DA:203,11
DA:204,11
DA:205,11
DA:206,11
DA:207,11
DA:208,11
DA:209,11
DA:210,11
DA:211,11
DA:212,11
DA:213,11
DA:214,11
DA:215,11
DA:216,11
DA:217,11
DA:218,11
DA:219,11
DA:220,11
DA:221,11
DA:222,11
DA:223,11
DA:224,11
DA:225,11
DA:226,11
DA:227,11
DA:235,11
DA:236,11
DA:237,11
DA:238,11
DA:239,11
DA:240,11
DA:241,11
DA:242,11
DA:244,11
DA:245,11
DA:246,11
DA:247,11
DA:248,11
DA:249,11
DA:251,11
DA:252,11
DA:253,11
DA:255,11
DA:256,11
DA:257,11
DA:258,11
DA:259,11
DA:260,11
DA:261,11
DA:262,11
DA:263,11
DA:264,11
DA:265,0
DA:266,11
DA:267,11
DA:271,11
DA:272,11
DA:273,11
DA:274,11
DA:275,11
DA:276,11
DA:277,11
DA:278,11
DA:279,11
DA:280,11
DA:281,11
DA:282,11
DA:283,11
DA:284,11
DA:285,11
DA:286,11
DA:287,11
DA:288,11
DA:289,11
DA:290,11
DA:291,11
DA:292,11
DA:293,11
DA:294,11
DA:295,11
DA:296,11
DA:298,11
DA:300,11
DA:301,11
DA:302,11
DA:303,11
DA:304,11
DA:305,11
DA:306,11
DA:309,0
DA:310,0
DA:311,0
DA:312,0
DA:313,0
DA:314,0
DA:315,0
DA:316,0
DA:317,0
DA:318,0
DA:319,0
DA:320,0
DA:321,0
DA:322,0
DA:323,0
DA:324,0
DA:325,0
DA:326,0
DA:327,0
DA:328,0
DA:329,0
DA:330,0
DA:332,0
DA:333,0
DA:336,0
DA:337,0
DA:338,0
DA:339,0
DA:340,0
DA:341,0
DA:342,0
DA:343,0
DA:344,0
DA:345,0
BRF:0
BRH:0
LF:221
LH:182
end_of_record
SF:C:\Users\s2010\Me\Codes\Rust\wgpu-3dgs-viewer\src\selection\buffer.rs
FN:16,_RNvMNtNtCsjAfDNjLymyL_16wgpu_3dgs_viewer9selection6bufferNtB2_15ViewportTexture3new
FN:43,_RNvMNtNtCsjAfDNjLymyL_16wgpu_3dgs_viewer9selection6bufferNtB2_15ViewportTexture4view
FN:38,_RNvMNtNtCsjAfDNjLymyL_16wgpu_3dgs_viewer9selection6bufferNtB2_15ViewportTexture7texture
FN:106,_RNvMs4_NtNtCsjAfDNjLymyL_16wgpu_3dgs_viewer9selection6bufferNtB5_24ViewportTextureF32Buffer3new
FN:118,_RNvMs4_NtNtCsjAfDNjLymyL_16wgpu_3dgs_viewer9selection6bufferNtB5_24ViewportTextureF32Buffer6update
FN:157,_RNvMs9_NtNtCsjAfDNjLymyL_16wgpu_3dgs_viewer9selection6bufferNtB5_33PreprocessorInvertSelectionBuffer3new
FN:168,_RNvMs9_NtNtCsjAfDNjLymyL_16wgpu_3dgs_viewer9selection6bufferNtB5_33PreprocessorInvertSelectionBuffer6update
FN:57,_RNvMs_NtNtCsjAfDNjLymyL_16wgpu_3dgs_viewer9selection6bufferNtB4_24ViewportTexturePosBuffer3new
FN:69,_RNvMs_NtNtCsjAfDNjLymyL_16wgpu_3dgs_viewer9selection6bufferNtB4_24ViewportTexturePosBuffer6update
FN:75,_RNvXs0_NtNtCsjAfDNjLymyL_16wgpu_3dgs_viewer9selection6bufferNtB5_24ViewportTexturePosBufferNtNtCs7uIZbJPR652_14wgpu_3dgs_core6buffer13BufferWrapper6buffer
FN:89,_RNvXs2_NtNtCsjAfDNjLymyL_16wgpu_3dgs_viewer9selection6bufferNtB5_24ViewportTexturePosBufferINtNtCsmHtFwzCQ9E_4core7convert7TryFromNtNtNtCs4aW9DWY8b5u_4wgpu3api6buffer6BufferE8try_from
FN:124,_RNvXs5_NtNtCsjAfDNjLymyL_16wgpu_3dgs_viewer9selection6bufferNtB5_24ViewportTextureF32BufferNtNtCs7uIZbJPR652_14wgpu_3dgs_core6buffer13BufferWrapper6buffer
FN:138,_RNvXs7_NtNtCsjAfDNjLymyL_16wgpu_3dgs_viewer9selection6bufferNtB5_24ViewportTextureF32BufferINtNtCsmHtFwzCQ9E_4core7convert7TryFromNtNtNtCs4aW9DWY8b5u_4wgpu3api6buffer6BufferE8try_from
FN:175,_RNvXsa_NtNtCsjAfDNjLymyL_16wgpu_3dgs_viewer9selection6bufferNtB5_33PreprocessorInvertSelectionBufferNtNtCs7uIZbJPR652_14wgpu_3dgs_core6buffer13BufferWrapper6buffer
FN:189,_RNvXsc_NtNtCsjAfDNjLymyL_16wgpu_3dgs_viewer9selection6bufferNtB5_33PreprocessorInvertSelectionBufferINtNtCsmHtFwzCQ9E_4core7convert7TryFromNtNtNtCs4aW9DWY8b5u_4wgpu3api6buffer6BufferE8try_from
FN:81,_RNvXs1_NtNtCsjAfDNjLymyL_16wgpu_3dgs_viewer9selection6bufferNtNtNtCs4aW9DWY8b5u_4wgpu3api6buffer6BufferINtNtCsmHtFwzCQ9E_4core7convert4FromNtB5_24ViewportTexturePosBufferE4from
FN:130,_RNvXs6_NtNtCsjAfDNjLymyL_16wgpu_3dgs_viewer9selection6bufferNtNtNtCs4aW9DWY8b5u_4wgpu3api6buffer6BufferINtNtCsmHtFwzCQ9E_4core7convert4FromNtB5_24ViewportTextureF32BufferE4from
FN:181,_RNvXsb_NtNtCsjAfDNjLymyL_16wgpu_3dgs_viewer9selection6bufferNtNtNtCs4aW9DWY8b5u_4wgpu3api6buffer6BufferINtNtCsmHtFwzCQ9E_4core7convert4FromNtB5_33PreprocessorInvertSelectionBufferE4from
FN:90,_RNCNvXs2_NtNtCsjAfDNjLymyL_16wgpu_3dgs_viewer9selection6bufferNtB7_24ViewportTexturePosBufferINtNtCsmHtFwzCQ9E_4core7convert7TryFromNtNtNtCs4aW9DWY8b5u_4wgpu3api6buffer6BufferE8try_from0Bb_
FN:139,_RNCNvXs7_NtNtCsjAfDNjLymyL_16wgpu_3dgs_viewer9selection6bufferNtB7_24ViewportTextureF32BufferINtNtCsmHtFwzCQ9E_4core7convert7TryFromNtNtNtCs4aW9DWY8b5u_4wgpu3api6buffer6BufferE8try_from0Bb_
FN:190,_RNCNvXsc_NtNtCsjAfDNjLymyL_16wgpu_3dgs_viewer9selection6bufferNtB7_33PreprocessorInvertSelectionBufferINtNtCsmHtFwzCQ9E_4core7convert7TryFromNtNtNtCs4aW9DWY8b5u_4wgpu3api6buffer6BufferE8try_from0Bb_
FN:90,_RNCNvXs2_NtNtCsjMvbNGsYfvH_16wgpu_3dgs_viewer9selection6bufferNtB7_24ViewportTexturePosBufferINtNtCsmHtFwzCQ9E_4core7convert7TryFromNtNtNtCs4aW9DWY8b5u_4wgpu3api6buffer6BufferE8try_from0Bb_
FN:139,_RNCNvXs7_NtNtCsjMvbNGsYfvH_16wgpu_3dgs_viewer9selection6bufferNtB7_24ViewportTextureF32BufferINtNtCsmHtFwzCQ9E_4core7convert7TryFromNtNtNtCs4aW9DWY8b5u_4wgpu3api6buffer6BufferE8try_from0Bb_
FN:190,_RNCNvXsc_NtNtCsjMvbNGsYfvH_16wgpu_3dgs_viewer9selection6bufferNtB7_33PreprocessorInvertSelectionBufferINtNtCsmHtFwzCQ9E_4core7convert7TryFromNtNtNtCs4aW9DWY8b5u_4wgpu3api6buffer6BufferE8try_from0Bb_
FN:16,_RNvMNtNtCsjMvbNGsYfvH_16wgpu_3dgs_viewer9selection6bufferNtB2_15ViewportTexture3new
FN:43,_RNvMNtNtCsjMvbNGsYfvH_16wgpu_3dgs_viewer9selection6bufferNtB2_15ViewportTexture4view
FN:38,_RNvMNtNtCsjMvbNGsYfvH_16wgpu_3dgs_viewer9selection6bufferNtB2_15ViewportTexture7texture
FN:106,_RNvMs4_NtNtCsjMvbNGsYfvH_16wgpu_3dgs_viewer9selection6bufferNtB5_24ViewportTextureF32Buffer3new
FN:118,_RNvMs4_NtNtCsjMvbNGsYfvH_16wgpu_3dgs_viewer9selection6bufferNtB5_24ViewportTextureF32Buffer6update
FN:157,_RNvMs9_NtNtCsjMvbNGsYfvH_16wgpu_3dgs_viewer9selection6bufferNtB5_33PreprocessorInvertSelectionBuffer3new
FN:168,_RNvMs9_NtNtCsjMvbNGsYfvH_16wgpu_3dgs_viewer9selection6bufferNtB5_33PreprocessorInvertSelectionBuffer6update
FN:57,_RNvMs_NtNtCsjMvbNGsYfvH_16wgpu_3dgs_viewer9selection6bufferNtB4_24ViewportTexturePosBuffer3new
FN:69,_RNvMs_NtNtCsjMvbNGsYfvH_16wgpu_3dgs_viewer9selection6bufferNtB4_24ViewportTexturePosBuffer6update
FN:75,_RNvXs0_NtNtCsjMvbNGsYfvH_16wgpu_3dgs_viewer9selection6bufferNtB5_24ViewportTexturePosBufferNtNtCs7uIZbJPR652_14wgpu_3dgs_core6buffer13BufferWrapper6buffer
FN:81,_RNvXs1_NtNtCsjMvbNGsYfvH_16wgpu_3dgs_viewer9selection6bufferNtNtNtCs4aW9DWY8b5u_4wgpu3api6buffer6BufferINtNtCsmHtFwzCQ9E_4core7convert4FromNtB5_24ViewportTexturePosBufferE4from
FN:89,_RNvXs2_NtNtCsjMvbNGsYfvH_16wgpu_3dgs_viewer9selection6bufferNtB5_24ViewportTexturePosBufferINtNtCsmHtFwzCQ9E_4core7convert7TryFromNtNtNtCs4aW9DWY8b5u_4wgpu3api6buffer6BufferE8try_from
FN:124,_RNvXs5_NtNtCsjMvbNGsYfvH_16wgpu_3dgs_viewer9selection6bufferNtB5_24ViewportTextureF32BufferNtNtCs7uIZbJPR652_14wgpu_3dgs_core6buffer13BufferWrapper6buffer
FN:130,_RNvXs6_NtNtCsjMvbNGsYfvH_16wgpu_3dgs_viewer9selection6bufferNtNtNtCs4aW9DWY8b5u_4wgpu3api6buffer6BufferINtNtCsmHtFwzCQ9E_4core7convert4FromNtB5_24ViewportTextureF32BufferE4from
FN:138,_RNvXs7_NtNtCsjMvbNGsYfvH_16wgpu_3dgs_viewer9selection6bufferNtB5_24ViewportTextureF32BufferINtNtCsmHtFwzCQ9E_4core7convert7TryFromNtNtNtCs4aW9DWY8b5u_4wgpu3api6buffer6BufferE8try_from
FN:175,_RNvXsa_NtNtCsjMvbNGsYfvH_16wgpu_3dgs_viewer9selection6bufferNtB5_33PreprocessorInvertSelectionBufferNtNtCs7uIZbJPR652_14wgpu_3dgs_core6buffer13BufferWrapper6buffer
FN:181,_RNvXsb_NtNtCsjMvbNGsYfvH_16wgpu_3dgs_viewer9selection6bufferNtNtNtCs4aW9DWY8b5u_4wgpu3api6buffer6BufferINtNtCsmHtFwzCQ9E_4core7convert4FromNtB5_33PreprocessorInvertSelectionBufferE4from
FN:189,_RNvXsc_NtNtCsjMvbNGsYfvH_16wgpu_3dgs_viewer9selection6bufferNtB5_33PreprocessorInvertSelectionBufferINtNtCsmHtFwzCQ9E_4core7convert7TryFromNtNtNtCs4aW9DWY8b5u_4wgpu3api6buffer6BufferE8try_from
FNDA:15,_RNvMNtNtCsjAfDNjLymyL_16wgpu_3dgs_viewer9selection6bufferNtB2_15ViewportTexture3new
FNDA:31,_RNvMNtNtCsjAfDNjLymyL_16wgpu_3dgs_viewer9selection6bufferNtB2_15ViewportTexture4view
FNDA:12,_RNvMNtNtCsjAfDNjLymyL_16wgpu_3dgs_viewer9selection6bufferNtB2_15ViewportTexture7texture
FNDA:6,_RNvMs4_NtNtCsjAfDNjLymyL_16wgpu_3dgs_viewer9selection6bufferNtB5_24ViewportTextureF32Buffer3new
FNDA:6,_RNvMs4_NtNtCsjAfDNjLymyL_16wgpu_3dgs_viewer9selection6bufferNtB5_24ViewportTextureF32Buffer6update
FNDA:11,_RNvMs9_NtNtCsjAfDNjLymyL_16wgpu_3dgs_viewer9selection6bufferNtB5_33PreprocessorInvertSelectionBuffer3new
FNDA:0,_RNvMs9_NtNtCsjAfDNjLymyL_16wgpu_3dgs_viewer9selection6bufferNtB5_33PreprocessorInvertSelectionBuffer6update
FNDA:12,_RNvMs_NtNtCsjAfDNjLymyL_16wgpu_3dgs_viewer9selection6bufferNtB4_24ViewportTexturePosBuffer3new
FNDA:17,_RNvMs_NtNtCsjAfDNjLymyL_16wgpu_3dgs_viewer9selection6bufferNtB4_24ViewportTexturePosBuffer6update
FNDA:24,_RNvXs0_NtNtCsjAfDNjLymyL_16wgpu_3dgs_viewer9selection6bufferNtB5_24ViewportTexturePosBufferNtNtCs7uIZbJPR652_14wgpu_3dgs_core6buffer13BufferWrapper6buffer
FNDA:0,_RNvXs2_NtNtCsjAfDNjLymyL_16wgpu_3dgs_viewer9selection6bufferNtB5_24ViewportTexturePosBufferINtNtCsmHtFwzCQ9E_4core7convert7TryFromNtNtNtCs4aW9DWY8b5u_4wgpu3api6buffer6BufferE8try_from
FNDA:6,_RNvXs5_NtNtCsjAfDNjLymyL_16wgpu_3dgs_viewer9selection6bufferNtB5_24ViewportTextureF32BufferNtNtCs7uIZbJPR652_14wgpu_3dgs_core6buffer13BufferWrapper6buffer
FNDA:0,_RNvXs7_NtNtCsjAfDNjLymyL_16wgpu_3dgs_viewer9selection6bufferNtB5_24ViewportTextureF32BufferINtNtCsmHtFwzCQ9E_4core7convert7TryFromNtNtNtCs4aW9DWY8b5u_4wgpu3api6buffer6BufferE8try_from
FNDA:11,_RNvXsa_NtNtCsjAfDNjLymyL_16wgpu_3dgs_viewer9selection6bufferNtB5_33PreprocessorInvertSelectionBufferNtNtCs7uIZbJPR652_14wgpu_3dgs_core6buffer13BufferWrapper6buffer
FNDA:0,_RNvXsc_NtNtCsjAfDNjLymyL_16wgpu_3dgs_viewer9selection6bufferNtB5_33PreprocessorInvertSelectionBufferINtNtCsmHtFwzCQ9E_4core7convert7TryFromNtNtNtCs4aW9DWY8b5u_4wgpu3api6buffer6BufferE8try_from
FNDA:0,_RNvXs1_NtNtCsjAfDNjLymyL_16wgpu_3dgs_viewer9selection6bufferNtNtNtCs4aW9DWY8b5u_4wgpu3api6buffer6BufferINtNtCsmHtFwzCQ9E_4core7convert4FromNtB5_24ViewportTexturePosBufferE4from
FNDA:0,_RNvXs6_NtNtCsjAfDNjLymyL_16wgpu_3dgs_viewer9selection6bufferNtNtNtCs4aW9DWY8b5u_4wgpu3api6buffer6BufferINtNtCsmHtFwzCQ9E_4core7convert4FromNtB5_24ViewportTextureF32BufferE4from
FNDA:0,_RNvXsb_NtNtCsjAfDNjLymyL_16wgpu_3dgs_viewer9selection6bufferNtNtNtCs4aW9DWY8b5u_4wgpu3api6buffer6BufferINtNtCsmHtFwzCQ9E_4core7convert4FromNtB5_33PreprocessorInvertSelectionBufferE4from
FNDA:0,_RNCNvXs2_NtNtCsjAfDNjLymyL_16wgpu_3dgs_viewer9selection6bufferNtB7_24ViewportTexturePosBufferINtNtCsmHtFwzCQ9E_4core7convert7TryFromNtNtNtCs4aW9DWY8b5u_4wgpu3api6buffer6BufferE8try_from0Bb_
FNDA:0,_RNCNvXs7_NtNtCsjAfDNjLymyL_16wgpu_3dgs_viewer9selection6bufferNtB7_24ViewportTextureF32BufferINtNtCsmHtFwzCQ9E_4core7convert7TryFromNtNtNtCs4aW9DWY8b5u_4wgpu3api6buffer6BufferE8try_from0Bb_
FNDA:0,_RNCNvXsc_NtNtCsjAfDNjLymyL_16wgpu_3dgs_viewer9selection6bufferNtB7_33PreprocessorInvertSelectionBufferINtNtCsmHtFwzCQ9E_4core7convert7TryFromNtNtNtCs4aW9DWY8b5u_4wgpu3api6buffer6BufferE8try_from0Bb_
FNDA:0,_RNCNvXs2_NtNtCsjMvbNGsYfvH_16wgpu_3dgs_viewer9selection6bufferNtB7_24ViewportTexturePosBufferINtNtCsmHtFwzCQ9E_4core7convert7TryFromNtNtNtCs4aW9DWY8b5u_4wgpu3api6buffer6BufferE8try_from0Bb_
FNDA:0,_RNCNvXs7_NtNtCsjMvbNGsYfvH_16wgpu_3dgs_viewer9selection6bufferNtB7_24ViewportTextureF32BufferINtNtCsmHtFwzCQ9E_4core7convert7TryFromNtNtNtCs4aW9DWY8b5u_4wgpu3api6buffer6BufferE8try_from0Bb_
FNDA:0,_RNCNvXsc_NtNtCsjMvbNGsYfvH_16wgpu_3dgs_viewer9selection6bufferNtB7_33PreprocessorInvertSelectionBufferINtNtCsmHtFwzCQ9E_4core7convert7TryFromNtNtNtCs4aW9DWY8b5u_4wgpu3api6buffer6BufferE8try_from0Bb_
FNDA:0,_RNvMNtNtCsjMvbNGsYfvH_16wgpu_3dgs_viewer9selection6bufferNtB2_15ViewportTexture3new
FNDA:0,_RNvMNtNtCsjMvbNGsYfvH_16wgpu_3dgs_viewer9selection6bufferNtB2_15ViewportTexture4view
FNDA:0,_RNvMNtNtCsjMvbNGsYfvH_16wgpu_3dgs_viewer9selection6bufferNtB2_15ViewportTexture7texture
FNDA:0,_RNvMs4_NtNtCsjMvbNGsYfvH_16wgpu_3dgs_viewer9selection6bufferNtB5_24ViewportTextureF32Buffer3new
FNDA:0,_RNvMs4_NtNtCsjMvbNGsYfvH_16wgpu_3dgs_viewer9selection6bufferNtB5_24ViewportTextureF32Buffer6update
FNDA:0,_RNvMs9_NtNtCsjMvbNGsYfvH_16wgpu_3dgs_viewer9selection6bufferNtB5_33PreprocessorInvertSelectionBuffer3new
FNDA:0,_RNvMs9_NtNtCsjMvbNGsYfvH_16wgpu_3dgs_viewer9selection6bufferNtB5_33PreprocessorInvertSelectionBuffer6update
FNDA:0,_RNvMs_NtNtCsjMvbNGsYfvH_16wgpu_3dgs_viewer9selection6bufferNtB4_24ViewportTexturePosBuffer3new
FNDA:0,_RNvMs_NtNtCsjMvbNGsYfvH_16wgpu_3dgs_viewer9selection6bufferNtB4_24ViewportTexturePosBuffer6update
FNDA:0,_RNvXs0_NtNtCsjMvbNGsYfvH_16wgpu_3dgs_viewer9selection6bufferNtB5_24ViewportTexturePosBufferNtNtCs7uIZbJPR652_14wgpu_3dgs_core6buffer13BufferWrapper6buffer
FNDA:0,_RNvXs1_NtNtCsjMvbNGsYfvH_16wgpu_3dgs_viewer9selection6bufferNtNtNtCs4aW9DWY8b5u_4wgpu3api6buffer6BufferINtNtCsmHtFwzCQ9E_4core7convert4FromNtB5_24ViewportTexturePosBufferE4from
FNDA:0,_RNvXs2_NtNtCsjMvbNGsYfvH_16wgpu_3dgs_viewer9selection6bufferNtB5_24ViewportTexturePosBufferINtNtCsmHtFwzCQ9E_4core7convert7TryFromNtNtNtCs4aW9DWY8b5u_4wgpu3api6buffer6BufferE8try_from
FNDA:0,_RNvXs5_NtNtCsjMvbNGsYfvH_16wgpu_3dgs_viewer9selection6bufferNtB5_24ViewportTextureF32BufferNtNtCs7uIZbJPR652_14wgpu_3dgs_core6buffer13BufferWrapper6buffer
FNDA:0,_RNvXs6_NtNtCsjMvbNGsYfvH_16wgpu_3dgs_viewer9selection6bufferNtNtNtCs4aW9DWY8b5u_4wgpu3api6buffer6BufferINtNtCsmHtFwzCQ9E_4core7convert4FromNtB5_24ViewportTextureF32BufferE4from
FNDA:0,_RNvXs7_NtNtCsjMvbNGsYfvH_16wgpu_3dgs_viewer9selection6bufferNtB5_24ViewportTextureF32BufferINtNtCsmHtFwzCQ9E_4core7convert7TryFromNtNtNtCs4aW9DWY8b5u_4wgpu3api6buffer6BufferE8try_from
FNDA:0,_RNvXsa_NtNtCsjMvbNGsYfvH_16wgpu_3dgs_viewer9selection6bufferNtB5_33PreprocessorInvertSelectionBufferNtNtCs7uIZbJPR652_14wgpu_3dgs_core6buffer13BufferWrapper6buffer
FNDA:0,_RNvXsb_NtNtCsjMvbNGsYfvH_16wgpu_3dgs_viewer9selection6bufferNtNtNtCs4aW9DWY8b5u_4wgpu3api6buffer6BufferINtNtCsmHtFwzCQ9E_4core7convert4FromNtB5_33PreprocessorInvertSelectionBufferE4from
FNDA:0,_RNvXsc_NtNtCsjMvbNGsYfvH_16wgpu_3dgs_viewer9selection6bufferNtB5_33PreprocessorInvertSelectionBufferINtNtCsmHtFwzCQ9E_4core7convert7TryFromNtNtNtCs4aW9DWY8b5u_4wgpu3api6buffer6BufferE8try_from
FNF:21
FNH:11
DA:16,15
DA:17,15
DA:18,15
DA:19,15
DA:20,15
DA:21,15
DA:22,15
DA:23,15
DA:24,15
DA:25,15
DA:26,15
DA:27,15
DA:28,15
DA:29,15
DA:30,15
DA:32,15
DA:34,15
DA:35,15
DA:38,12
DA:39,12
DA:40,12
DA:43,31
DA:44,31
DA:45,31
DA:57,12
DA:58,12
DA:59,12
DA:60,12
DA:61,12
DA:62,12
DA:63,12
DA:65,12
DA:66,12
DA:69,17
DA:70,17
DA:71,17
DA:75,24
DA:76,24
DA:77,24
DA:81,0
DA:82,0
DA:83,0
DA:89,0
DA:90,0
DA:91,0
DA:106,6
DA:107,6
DA:108,6
DA:109,6
DA:110,6
DA:111,6
DA:112,6
DA:114,6
DA:115,6
DA:118,6
DA:119,6
DA:120,6
DA:124,6
DA:125,6
DA:126,6
DA:130,0
DA:131,0
DA:132,0
DA:138,0
DA:139,0
DA:140,0
DA:157,11
DA:158,11
DA:159,11
DA:160,11
DA:161,11
DA:162,11
DA:164,11
DA:165,11
DA:168,0
DA:169,0
DA:170,0
DA:171,0
DA:175,11
DA:176,11
DA:177,11
DA:181,0
DA:182,0
DA:183,0
DA:189,0
DA:190,0
DA:191,0
BRF:0
BRH:0
LF:90
LH:65
end_of_record
SF:C:\Users\s2010\Me\Codes\Rust\wgpu-3dgs-viewer\src\selection\viewport.rs
FN:41,_RINvNtNtCsjAfDNjLymyL_16wgpu_3dgs_viewer9selection8viewport22create_viewport_bundleNtNtNtCs7uIZbJPR652_14wgpu_3dgs_core6buffer8gaussian41GaussianPodWithShSingleCov3dSingleConfigsECskHWTcKnagmk_3mod
FN:64,_RNCINvNtNtCsjAfDNjLymyL_16wgpu_3dgs_viewer9selection8viewport22create_viewport_bundleNtNtNtCs7uIZbJPR652_14wgpu_3dgs_core6buffer8gaussian41GaussianPodWithShSingleCov3dSingleConfigsE0CskHWTcKnagmk_3mod
FN:41,_RINvNtNtCsjMvbNGsYfvH_16wgpu_3dgs_viewer9selection8viewport22create_viewport_bundlepEB6_
FN:64,_RNCINvNtNtCsjMvbNGsYfvH_16wgpu_3dgs_viewer9selection8viewport22create_viewport_bundlepE0B8_
FN:41,_RINvNtNtCsjAfDNjLymyL_16wgpu_3dgs_viewer9selection8viewport22create_viewport_bundleNtNtNtCs7uIZbJPR652_14wgpu_3dgs_core6buffer8gaussian41GaussianPodWithShSingleCov3dSingleConfigsECsaEBMRA9cDqq_9selection
FN:64,_RNCINvNtNtCsjAfDNjLymyL_16wgpu_3dgs_viewer9selection8viewport22create_viewport_bundleNtNtNtCs7uIZbJPR652_14wgpu_3dgs_core6buffer8gaussian41GaussianPodWithShSingleCov3dSingleConfigsE0CsaEBMRA9cDqq_9selection
FNDA:5,_RINvNtNtCsjAfDNjLymyL_16wgpu_3dgs_viewer9selection8viewport22create_viewport_bundleNtNtNtCs7uIZbJPR652_14wgpu_3dgs_core6buffer8gaussian41GaussianPodWithShSingleCov3dSingleConfigsECskHWTcKnagmk_3mod
FNDA:0,_RNCINvNtNtCsjAfDNjLymyL_16wgpu_3dgs_viewer9selection8viewport22create_viewport_bundleNtNtNtCs7uIZbJPR652_14wgpu_3dgs_core6buffer8gaussian41GaussianPodWithShSingleCov3dSingleConfigsE0CskHWTcKnagmk_3mod
FNDA:0,_RINvNtNtCsjMvbNGsYfvH_16wgpu_3dgs_viewer9selection8viewport22create_viewport_bundlepEB6_
FNDA:0,_RNCINvNtNtCsjMvbNGsYfvH_16wgpu_3dgs_viewer9selection8viewport22create_viewport_bundlepE0B8_
FNDA:1,_RINvNtNtCsjAfDNjLymyL_16wgpu_3dgs_viewer9selection8viewport22create_viewport_bundleNtNtNtCs7uIZbJPR652_14wgpu_3dgs_core6buffer8gaussian41GaussianPodWithShSingleCov3dSingleConfigsECsaEBMRA9cDqq_9selection
FNDA:0,_RNCINvNtNtCsjAfDNjLymyL_16wgpu_3dgs_viewer9selection8viewport22create_viewport_bundleNtNtNtCs7uIZbJPR652_14wgpu_3dgs_core6buffer8gaussian41GaussianPodWithShSingleCov3dSingleConfigsE0CsaEBMRA9cDqq_9selection
FNF:2
FNH:1
DA:41,6
DA:42,6
DA:43,6
DA:44,6
DA:46,6
DA:47,6
DA:48,6
DA:49,6
DA:50,6
DA:51,6
DA:52,6
DA:53,6
DA:54,6
DA:55,6
DA:57,6
DA:58,6
DA:59,6
DA:60,6
DA:61,6
DA:62,6
DA:63,6
DA:64,6
DA:65,6
DA:66,6
BRF:0
BRH:0
LF:25
LH:24
end_of_record
SF:C:\Users\s2010\Me\Codes\Rust\wgpu-3dgs-viewer\src\selection\viewport_selector.rs
FN:313,_RNvMNtNtCsjAfDNjLymyL_16wgpu_3dgs_viewer9selection17viewport_selectorNtB2_16ViewportSelector16set_brush_radius
FN:206,_RNvMNtNtCsjAfDNjLymyL_16wgpu_3dgs_viewer9selection17viewport_selectorNtB2_16ViewportSelector3new
FN:277,_RNvMNtNtCsjAfDNjLymyL_16wgpu_3dgs_viewer9selection17viewport_selectorNtB2_16ViewportSelector5clear
FN:252,_RNvMNtNtCsjAfDNjLymyL_16wgpu_3dgs_viewer9selection17viewport_selectorNtB2_16ViewportSelector5start
FN:296,_RNvMNtNtCsjAfDNjLymyL_16wgpu_3dgs_viewer9selection17viewport_selectorNtB2_16ViewportSelector6render
FN:321,_RNvMNtNtCsjAfDNjLymyL_16wgpu_3dgs_viewer9selection17viewport_selectorNtB2_16ViewportSelector6resize
FN:260,_RNvMNtNtCsjAfDNjLymyL_16wgpu_3dgs_viewer9selection17viewport_selectorNtB2_16ViewportSelector6update
FN:308,_RNvMNtNtCsjAfDNjLymyL_16wgpu_3dgs_viewer9selection17viewport_selectorNtB2_16ViewportSelector7texture
FN:313,_RNvMNtNtCsjMvbNGsYfvH_16wgpu_3dgs_viewer9selection17viewport_selectorNtB2_16ViewportSelector16set_brush_radius
FN:206,_RNvMNtNtCsjMvbNGsYfvH_16wgpu_3dgs_viewer9selection17viewport_selectorNtB2_16ViewportSelector3new
FN:277,_RNvMNtNtCsjMvbNGsYfvH_16wgpu_3dgs_viewer9selection17viewport_selectorNtB2_16ViewportSelector5clear
FN:252,_RNvMNtNtCsjMvbNGsYfvH_16wgpu_3dgs_viewer9selection17viewport_selectorNtB2_16ViewportSelector5start
FN:296,_RNvMNtNtCsjMvbNGsYfvH_16wgpu_3dgs_viewer9selection17viewport_selectorNtB2_16ViewportSelector6render
FN:321,_RNvMNtNtCsjMvbNGsYfvH_16wgpu_3dgs_viewer9selection17viewport_selectorNtB2_16ViewportSelector6resize
FN:260,_RNvMNtNtCsjMvbNGsYfvH_16wgpu_3dgs_viewer9selection17viewport_selectorNtB2_16ViewportSelector6update
FN:308,_RNvMNtNtCsjMvbNGsYfvH_16wgpu_3dgs_viewer9selection17viewport_selectorNtB2_16ViewportSelector7texture
FNDA:0,_RNvMNtNtCsjAfDNjLymyL_16wgpu_3dgs_viewer9selection17viewport_selectorNtB2_16ViewportSelector16set_brush_radius
FNDA:6,_RNvMNtNtCsjAfDNjLymyL_16wgpu_3dgs_viewer9selection17viewport_selectorNtB2_16ViewportSelector3new
FNDA:1,_RNvMNtNtCsjAfDNjLymyL_16wgpu_3dgs_viewer9selection17viewport_selectorNtB2_16ViewportSelector5clear
FNDA:5,_RNvMNtNtCsjAfDNjLymyL_16wgpu_3dgs_viewer9selection17viewport_selectorNtB2_16ViewportSelector5start
FNDA:5,_RNvMNtNtCsjAfDNjLymyL_16wgpu_3dgs_viewer9selection17viewport_selectorNtB2_16ViewportSelector6render
FNDA:9,_RNvMNtNtCsjAfDNjLymyL_16wgpu_3dgs_viewer9selection17viewport_selectorNtB2_16ViewportSelector6resize
FNDA:5,_RNvMNtNtCsjAfDNjLymyL_16wgpu_3dgs_viewer9selection17viewport_selectorNtB2_16ViewportSelector6update
FNDA:25,_RNvMNtNtCsjAfDNjLymyL_16wgpu_3dgs_viewer9selection17viewport_selectorNtB2_16ViewportSelector7texture
FNDA:0,_RNvMNtNtCsjMvbNGsYfvH_16wgpu_3dgs_viewer9selection17viewport_selectorNtB2_16ViewportSelector16set_brush_radius
FNDA:0,_RNvMNtNtCsjMvbNGsYfvH_16wgpu_3dgs_viewer9selection17viewport_selectorNtB2_16ViewportSelector3new
FNDA:0,_RNvMNtNtCsjMvbNGsYfvH_16wgpu_3dgs_viewer9selection17viewport_selectorNtB2_16ViewportSelector5clear
FNDA:0,_RNvMNtNtCsjMvbNGsYfvH_16wgpu_3dgs_viewer9selection17viewport_selectorNtB2_16ViewportSelector5start
FNDA:0,_RNvMNtNtCsjMvbNGsYfvH_16wgpu_3dgs_viewer9selection17viewport_selectorNtB2_16ViewportSelector6render
FNDA:0,_RNvMNtNtCsjMvbNGsYfvH_16wgpu_3dgs_viewer9selection17viewport_selectorNtB2_16ViewportSelector6resize
FNDA:0,_RNvMNtNtCsjMvbNGsYfvH_16wgpu_3dgs_viewer9selection17viewport_selectorNtB2_16ViewportSelector6update
FNDA:0,_RNvMNtNtCsjMvbNGsYfvH_16wgpu_3dgs_viewer9selection17viewport_selectorNtB2_16ViewportSelector7texture
FNF:8
FNH:7
DA:206,6
DA:207,6
DA:208,6
DA:209,6
DA:210,6
DA:211,6
DA:212,6
DA:213,6
DA:214,6
DA:215,6
DA:216,6
DA:217,6
DA:218,6
DA:219,6
DA:220,6
DA:221,6
DA:222,6
DA:223,0
DA:224,6
DA:225,6
DA:226,6
DA:227,6
DA:228,6
DA:229,6
DA:230,6
DA:231,0
DA:233,6
DA:234,6
DA:235,6
DA:236,6
DA:237,6
DA:238,6
DA:239,6
DA:240,6
DA:241,6
DA:242,6
DA:243,6
DA:244,6
DA:245,6
DA:246,6
DA:247,6
DA:248,6
DA:249,6
DA:252,5
DA:253,5
DA:254,5
DA:255,5
DA:256,5
DA:257,5
DA:260,5
DA:261,5
DA:262,3
DA:263,3
DA:264,3
DA:265,3
DA:266,2
DA:267,2
DA:268,2
DA:269,2
DA:270,2
DA:271,2
DA:272,2
DA:274,5
DA:277,1
DA:278,1
DA:279,1
DA:280,1
DA:281,1
DA:282,1
DA:283,1
DA:284,1
DA:285,1
DA:286,1
DA:287,1
DA:288,1
DA:289,1
DA:290,1
DA:291,1
DA:292,1
DA:293,1
DA:296,5
DA:297,5
DA:298,3
DA:299,3
DA:300,3
DA:302,2
DA:305,5
DA:308,25
DA:309,25
DA:310,25
DA:313,0
DA:314,0
DA:315,0
DA:316,0
DA:321,9
DA:322,9
DA:323,9
BRF:0
BRH:0
LF:97
LH:91
end_of_record
SF:C:\Users\s2010\Me\Codes\Rust\wgpu-3dgs-viewer\src\selection\viewport_texture_brush.rs
FN:281,_RNvMs0_NtNtCsjAfDNjLymyL_16wgpu_3dgs_viewer9selection22viewport_texture_brushINtB5_28ViewportTextureBrushRendereruE16render_with_pass
FN:186,_RNvMs0_NtNtCsjAfDNjLymyL_16wgpu_3dgs_viewer9selection22viewport_texture_brushINtB5_28ViewportTextureBrushRendereruE22new_without_bind_group
FN:255,_RNvMs0_NtNtCsjAfDNjLymyL_16wgpu_3dgs_viewer9selection22viewport_texture_brushINtB5_28ViewportTextureBrushRendereruE6render
FN:137,_RNvMs_NtNtCsjAfDNjLymyL_16wgpu_3dgs_viewer9selection22viewport_texture_brushNtB4_28ViewportTextureBrushRenderer16render_with_pass
FN:144,_RNvMs_NtNtCsjAfDNjLymyL_16wgpu_3dgs_viewer9selection22viewport_texture_brushNtB4_28ViewportTextureBrushRenderer24create_bind_group_static
FN:95,_RNvMs_NtNtCsjAfDNjLymyL_16wgpu_3dgs_viewer9selection22viewport_texture_brushNtB4_28ViewportTextureBrushRenderer3new
FN:116,_RNvMs_NtNtCsjAfDNjLymyL_16wgpu_3dgs_viewer9selection22viewport_texture_brushNtB4_28ViewportTextureBrushRenderer6render
FN:22,_RNvMNtNtCsjAfDNjLymyL_16wgpu_3dgs_viewer9selection22viewport_texture_brushINtB2_28ViewportTextureBrushRendereruE17create_bind_groupB6_
FN:22,_RNvMNtNtCsjMvbNGsYfvH_16wgpu_3dgs_viewer9selection22viewport_texture_brushINtB2_28ViewportTextureBrushRendererpE17create_bind_groupB6_
FN:281,_RNvMs0_NtNtCsjMvbNGsYfvH_16wgpu_3dgs_viewer9selection22viewport_texture_brushINtB5_28ViewportTextureBrushRendereruE16render_with_pass
FN:186,_RNvMs0_NtNtCsjMvbNGsYfvH_16wgpu_3dgs_viewer9selection22viewport_texture_brushINtB5_28ViewportTextureBrushRendereruE22new_without_bind_group
FN:255,_RNvMs0_NtNtCsjMvbNGsYfvH_16wgpu_3dgs_viewer9selection22viewport_texture_brushINtB5_28ViewportTextureBrushRendereruE6render
FN:137,_RNvMs_NtNtCsjMvbNGsYfvH_16wgpu_3dgs_viewer9selection22viewport_texture_brushNtB4_28ViewportTextureBrushRenderer16render_with_pass
FN:144,_RNvMs_NtNtCsjMvbNGsYfvH_16wgpu_3dgs_viewer9selection22viewport_texture_brushNtB4_28ViewportTextureBrushRenderer24create_bind_group_static
FN:95,_RNvMs_NtNtCsjMvbNGsYfvH_16wgpu_3dgs_viewer9selection22viewport_texture_brushNtB4_28ViewportTextureBrushRenderer3new
FN:116,_RNvMs_NtNtCsjMvbNGsYfvH_16wgpu_3dgs_viewer9selection22viewport_texture_brushNtB4_28ViewportTextureBrushRenderer6render
FNDA:0,_RNvMs0_NtNtCsjAfDNjLymyL_16wgpu_3dgs_viewer9selection22viewport_texture_brushINtB5_28ViewportTextureBrushRendereruE16render_with_pass
FNDA:6,_RNvMs0_NtNtCsjAfDNjLymyL_16wgpu_3dgs_viewer9selection22viewport_texture_brushINtB5_28ViewportTextureBrushRendereruE22new_without_bind_group
FNDA:0,_RNvMs0_NtNtCsjAfDNjLymyL_16wgpu_3dgs_viewer9selection22viewport_texture_brushINtB5_28ViewportTextureBrushRendereruE6render
FNDA:2,_RNvMs_NtNtCsjAfDNjLymyL_16wgpu_3dgs_viewer9selection22viewport_texture_brushNtB4_28ViewportTextureBrushRenderer16render_with_pass
FNDA:6,_RNvMs_NtNtCsjAfDNjLymyL_16wgpu_3dgs_viewer9selection22viewport_texture_brushNtB4_28ViewportTextureBrushRenderer24create_bind_group_static
FNDA:6,_RNvMs_NtNtCsjAfDNjLymyL_16wgpu_3dgs_viewer9selection22viewport_texture_brushNtB4_28ViewportTextureBrushRenderer3new
FNDA:2,_RNvMs_NtNtCsjAfDNjLymyL_16wgpu_3dgs_viewer9selection22viewport_texture_brushNtB4_28ViewportTextureBrushRenderer6render
FNDA:6,_RNvMNtNtCsjAfDNjLymyL_16wgpu_3dgs_viewer9selection22viewport_texture_brushINtB2_28ViewportTextureBrushRendereruE17create_bind_groupB6_
FNDA:0,_RNvMNtNtCsjMvbNGsYfvH_16wgpu_3dgs_viewer9selection22viewport_texture_brushINtB2_28ViewportTextureBrushRendererpE17create_bind_groupB6_
FNDA:0,_RNvMs0_NtNtCsjMvbNGsYfvH_16wgpu_3dgs_viewer9selection22viewport_texture_brushINtB5_28ViewportTextureBrushRendereruE16render_with_pass
FNDA:0,_RNvMs0_NtNtCsjMvbNGsYfvH_16wgpu_3dgs_viewer9selection22viewport_texture_brushINtB5_28ViewportTextureBrushRendereruE22new_without_bind_group
FNDA:0,_RNvMs0_NtNtCsjMvbNGsYfvH_16wgpu_3dgs_viewer9selection22viewport_texture_brushINtB5_28ViewportTextureBrushRendereruE6render
FNDA:0,_RNvMs_NtNtCsjMvbNGsYfvH_16wgpu_3dgs_viewer9selection22viewport_texture_brushNtB4_28ViewportTextureBrushRenderer16render_with_pass
FNDA:0,_RNvMs_NtNtCsjMvbNGsYfvH_16wgpu_3dgs_viewer9selection22viewport_texture_brushNtB4_28ViewportTextureBrushRenderer24create_bind_group_static
FNDA:0,_RNvMs_NtNtCsjMvbNGsYfvH_16wgpu_3dgs_viewer9selection22viewport_texture_brushNtB4_28ViewportTextureBrushRenderer3new
FNDA:0,_RNvMs_NtNtCsjMvbNGsYfvH_16wgpu_3dgs_viewer9selection22viewport_texture_brushNtB4_28ViewportTextureBrushRenderer6render
FNF:8
FNH:6
DA:22,6
DA:23,6
DA:24,6
DA:25,6
DA:26,6
DA:27,6
DA:28,6
DA:29,6
DA:30,6
DA:31,6
DA:32,6
DA:33,6
DA:34,6
DA:35,6
DA:36,6
DA:38,6
DA:95,6
DA:96,6
DA:97,6
DA:98,6
DA:99,6
DA:100,6
DA:101,6
DA:102,6
DA:103,6
DA:105,6
DA:106,6
DA:108,6
DA:109,6
DA:110,6
DA:111,6
DA:112,6
DA:113,6
DA:116,2
DA:117,2
DA:118,2
DA:119,2
DA:120,2
DA:121,2
DA:122,2
DA:123,2
DA:124,2
DA:125,2
DA:126,2
DA:127,2
DA:128,2
DA:129,2
DA:130,2
DA:131,2
DA:133,2
DA:134,2
DA:137,2
DA:138,2
DA:139,2
DA:140,2
DA:141,2
DA:144,6
DA:145,6
DA:146,6
DA:147,6
DA:148,6
DA:149,6
DA:150,6
DA:151,6
DA:152,6
DA:153,6
DA:154,6
DA:155,6
DA:156,6
DA:157,6
DA:158,6
DA:159,6
DA:160,6
DA:161,6
DA:162,6
DA:163,6
DA:164,6
DA:165,6
DA:166,6
DA:167,6
DA:168,6
DA:169,6
DA:170,6
DA:171,6
DA:172,6
DA:173,6
DA:174,6
DA:175,6
DA:176,6
DA:177,6
DA:178,6
DA:186,6
DA:187,6
DA:188,6
DA:189,6
DA:190,6
DA:191,6
DA:192,6
DA:194,6
DA:195,6
DA:196,6
DA:197,6
DA:198,6
DA:199,6
DA:201,6
DA:202,6
DA:203,6
DA:205,6
DA:206,6
DA:207,6
DA:208,6
DA:209,6
DA:210,6
DA:211,6
DA:212,0
DA:213,6
DA:214,6
DA:218,6
DA:219,6
DA:220,6
DA:221,6
DA:222,6
DA:223,6
DA:224,6
DA:225,6
DA:226,6
DA:227,6
DA:228,6
DA:229,6
DA:230,6
DA:231,6
DA:232,6
DA:233,6
DA:234,6
DA:235,6
DA:236,6
DA:237,6
DA:238,6
DA:239,6
DA:240,6
DA:241,6
DA:242,6
DA:243,6
DA:245,6
DA:247,6
DA:248,6
DA:249,6
DA:250,6
DA:251,6
DA:252,6
DA:255,0
DA:256,0
DA:257,0
DA:258,0
DA:259,0
DA:260,0
DA:261,0
DA:262,0
DA:263,0
DA:264,0
DA:265,0
DA:266,0
DA:267,0
DA:268,0
DA:269,0
DA:270,0
DA:271,0
DA:272,0
DA:273,0
DA:274,0
DA:275,0
DA:277,0
DA:278,0
DA:281,0
DA:282,0
DA:283,0
DA:284,0
DA:285,0
BRF:0
BRH:0
LF:178
LH:149
end_of_record
SF:C:\Users\s2010\Me\Codes\Rust\wgpu-3dgs-viewer\src\selection\viewport_texture_rectangle.rs
FN:262,_RNvMs0_NtNtCsjAfDNjLymyL_16wgpu_3dgs_viewer9selection26viewport_texture_rectangleINtB5_32ViewportTextureRectangleRendereruE16render_with_pass
FN:166,_RNvMs0_NtNtCsjAfDNjLymyL_16wgpu_3dgs_viewer9selection26viewport_texture_rectangleINtB5_32ViewportTextureRectangleRendereruE22new_without_bind_group
FN:236,_RNvMs0_NtNtCsjAfDNjLymyL_16wgpu_3dgs_viewer9selection26viewport_texture_rectangleINtB5_32ViewportTextureRectangleRendereruE6render
FN:123,_RNvMs_NtNtCsjAfDNjLymyL_16wgpu_3dgs_viewer9selection26viewport_texture_rectangleNtB4_32ViewportTextureRectangleRenderer16render_with_pass
FN:130,_RNvMs_NtNtCsjAfDNjLymyL_16wgpu_3dgs_viewer9selection26viewport_texture_rectangleNtB4_32ViewportTextureRectangleRenderer24create_bind_group_static
FN:82,_RNvMs_NtNtCsjAfDNjLymyL_16wgpu_3dgs_viewer9selection26viewport_texture_rectangleNtB4_32ViewportTextureRectangleRenderer3new
FN:102,_RNvMs_NtNtCsjAfDNjLymyL_16wgpu_3dgs_viewer9selection26viewport_texture_rectangleNtB4_32ViewportTextureRectangleRenderer6render
FN:22,_RNvMNtNtCsjAfDNjLymyL_16wgpu_3dgs_viewer9selection26viewport_texture_rectangleINtB2_32ViewportTextureRectangleRendereruE17create_bind_groupB6_
FN:22,_RNvMNtNtCsjMvbNGsYfvH_16wgpu_3dgs_viewer9selection26viewport_texture_rectangleINtB2_32ViewportTextureRectangleRendererpE17create_bind_groupB6_
FN:262,_RNvMs0_NtNtCsjMvbNGsYfvH_16wgpu_3dgs_viewer9selection26viewport_texture_rectangleINtB5_32ViewportTextureRectangleRendereruE16render_with_pass
FN:166,_RNvMs0_NtNtCsjMvbNGsYfvH_16wgpu_3dgs_viewer9selection26viewport_texture_rectangleINtB5_32ViewportTextureRectangleRendereruE22new_without_bind_group
FN:236,_RNvMs0_NtNtCsjMvbNGsYfvH_16wgpu_3dgs_viewer9selection26viewport_texture_rectangleINtB5_32ViewportTextureRectangleRendereruE6render
FN:123,_RNvMs_NtNtCsjMvbNGsYfvH_16wgpu_3dgs_viewer9selection26viewport_texture_rectangleNtB4_32ViewportTextureRectangleRenderer16render_with_pass
FN:130,_RNvMs_NtNtCsjMvbNGsYfvH_16wgpu_3dgs_viewer9selection26viewport_texture_rectangleNtB4_32ViewportTextureRectangleRenderer24create_bind_group_static
FN:82,_RNvMs_NtNtCsjMvbNGsYfvH_16wgpu_3dgs_viewer9selection26viewport_texture_rectangleNtB4_32ViewportTextureRectangleRenderer3new
FN:102,_RNvMs_NtNtCsjMvbNGsYfvH_16wgpu_3dgs_viewer9selection26viewport_texture_rectangleNtB4_32ViewportTextureRectangleRenderer6render
FNDA:0,_RNvMs0_NtNtCsjAfDNjLymyL_16wgpu_3dgs_viewer9selection26viewport_texture_rectangleINtB5_32ViewportTextureRectangleRendereruE16render_with_pass
FNDA:6,_RNvMs0_NtNtCsjAfDNjLymyL_16wgpu_3dgs_viewer9selection26viewport_texture_rectangleINtB5_32ViewportTextureRectangleRendereruE22new_without_bind_group
FNDA:0,_RNvMs0_NtNtCsjAfDNjLymyL_16wgpu_3dgs_viewer9selection26viewport_texture_rectangleINtB5_32ViewportTextureRectangleRendereruE6render
FNDA:3,_RNvMs_NtNtCsjAfDNjLymyL_16wgpu_3dgs_viewer9selection26viewport_texture_rectangleNtB4_32ViewportTextureRectangleRenderer16render_with_pass
FNDA:6,_RNvMs_NtNtCsjAfDNjLymyL_16wgpu_3dgs_viewer9selection26viewport_texture_rectangleNtB4_32ViewportTextureRectangleRenderer24create_bind_group_static
FNDA:6,_RNvMs_NtNtCsjAfDNjLymyL_16wgpu_3dgs_viewer9selection26viewport_texture_rectangleNtB4_32ViewportTextureRectangleRenderer3new
FNDA:3,_RNvMs_NtNtCsjAfDNjLymyL_16wgpu_3dgs_viewer9selection26viewport_texture_rectangleNtB4_32ViewportTextureRectangleRenderer6render
FNDA:6,_RNvMNtNtCsjAfDNjLymyL_16wgpu_3dgs_viewer9selection26viewport_texture_rectangleINtB2_32ViewportTextureRectangleRendereruE17create_bind_groupB6_
FNDA:0,_RNvMNtNtCsjMvbNGsYfvH_16wgpu_3dgs_viewer9selection26viewport_texture_rectangleINtB2_32ViewportTextureRectangleRendererpE17create_bind_groupB6_
FNDA:0,_RNvMs0_NtNtCsjMvbNGsYfvH_16wgpu_3dgs_viewer9selection26viewport_texture_rectangleINtB5_32ViewportTextureRectangleRendereruE16render_with_pass
FNDA:0,_RNvMs0_NtNtCsjMvbNGsYfvH_16wgpu_3dgs_viewer9selection26viewport_texture_rectangleINtB5_32ViewportTextureRectangleRendereruE22new_without_bind_group
FNDA:0,_RNvMs0_NtNtCsjMvbNGsYfvH_16wgpu_3dgs_viewer9selection26viewport_texture_rectangleINtB5_32ViewportTextureRectangleRendereruE6render
FNDA:0,_RNvMs_NtNtCsjMvbNGsYfvH_16wgpu_3dgs_viewer9selection26viewport_texture_rectangleNtB4_32ViewportTextureRectangleRenderer16render_with_pass
FNDA:0,_RNvMs_NtNtCsjMvbNGsYfvH_16wgpu_3dgs_viewer9selection26viewport_texture_rectangleNtB4_32ViewportTextureRectangleRenderer24create_bind_group_static
FNDA:0,_RNvMs_NtNtCsjMvbNGsYfvH_16wgpu_3dgs_viewer9selection26viewport_texture_rectangleNtB4_32ViewportTextureRectangleRenderer3new
FNDA:0,_RNvMs_NtNtCsjMvbNGsYfvH_16wgpu_3dgs_viewer9selection26viewport_texture_rectangleNtB4_32ViewportTextureRectangleRenderer6render
FNF:8
FNH:6
DA:22,6
DA:23,6
DA:24,6
DA:25,6
DA:26,6
DA:27,6
DA:28,6
DA:29,6
DA:30,6
DA:31,6
DA:32,6
DA:33,6
DA:34,6
DA:36,6
DA:82,6
DA:83,6
DA:84,6
DA:85,6
DA:86,6
DA:87,6
DA:88,6
DA:89,6
DA:91,6
DA:92,6
DA:94,6
DA:95,6
DA:96,6
DA:97,6
DA:98,6
DA:99,6
DA:102,3
DA:103,3
DA:104,3
DA:105,3
DA:106,3
DA:107,3
DA:108,3
DA:109,3
DA:110,3
DA:111,3
DA:112,3
DA:113,3
DA:114,3
DA:115,3
DA:116,3
DA:117,3
DA:119,3
DA:120,3
DA:123,3
DA:124,3
DA:125,3
DA:126,3
DA:127,3
DA:130,6
DA:131,6
DA:132,6
DA:133,6
DA:134,6
DA:135,6
DA:136,6
DA:137,6
DA:138,6
DA:139,6
DA:140,6
DA:141,6
DA:142,6
DA:143,6
DA:144,6
DA:145,6
DA:146,6
DA:147,6
DA:148,6
DA:149,6
DA:150,6
DA:151,6
DA:152,6
DA:153,6
DA:154,6
DA:155,6
DA:156,6
DA:157,6
DA:158,6
DA:166,6
DA:167,6
DA:168,6
DA:169,6
DA:170,6
DA:171,6
DA:172,6
DA:175,6
DA:176,6
DA:177,6
DA:178,6
DA:179,6
DA:180,6
DA:182,6
DA:183,6
DA:184,6
DA:186,6
DA:187,6
DA:188,6
DA:189,6
DA:190,6
DA:191,6
DA:192,6
DA:193,0
DA:194,6
DA:195,6
DA:199,6
DA:200,6
DA:201,6
DA:202,6
DA:203,6
DA:204,6
DA:205,6
DA:206,6
DA:207,6
DA:208,6
DA:209,6
DA:210,6
DA:211,6
DA:212,6
DA:213,6
DA:214,6
DA:215,6
DA:216,6
DA:217,6
DA:218,6
DA:219,6
DA:220,6
DA:221,6
DA:222,6
DA:223,6
DA:224,6
DA:226,6
DA:228,6
DA:229,6
DA:230,6
DA:231,6
DA:232,6
DA:233,6
DA:236,0
DA:237,0
DA:238,0
DA:239,0
DA:240,0
DA:241,0
DA:242,0
DA:243,0
DA:244,0
DA:245,0
DA:246,0
DA:247,0
DA:248,0
DA:249,0
DA:250,0
DA:251,0
DA:252,0
DA:253,0
DA:254,0
DA:255,0
DA:256,0
DA:258,0
DA:259,0
DA:262,0
DA:263,0
DA:264,0
DA:265,0
DA:266,0
BRF:0
BRH:0
LF:169
LH:140
end_of_record
SF:C:\Users\s2010\Me\Codes\Rust\wgpu-3dgs-viewer\src\wesl_utils.rs
FN:7,_RNvNtCsjAfDNjLymyL_16wgpu_3dgs_viewer10wesl_utils8resolver
FN:7,_RNvNtCsjMvbNGsYfvH_16wgpu_3dgs_viewer10wesl_utils8resolver
FNDA:56,_RNvNtCsjAfDNjLymyL_16wgpu_3dgs_viewer10wesl_utils8resolver
FNDA:0,_RNvNtCsjMvbNGsYfvH_16wgpu_3dgs_viewer10wesl_utils8resolver
FNF:1
FNH:1
DA:7,56
DA:8,56
DA:9,56
DA:10,56
DA:11,56
DA:12,56
BRF:0
BRH:0
LF:6
LH:6
end_of_record